
Voltmeter_OhmMeter.elf:     file format elf32-avr

Sections:
Idx Name          Size      VMA       LMA       File off  Algn
  0 .text         00000cea  00000000  00000000  00000094  2**1
                  CONTENTS, ALLOC, LOAD, READONLY, CODE
  1 .data         00000074  00800060  00000cea  00000d7e  2**0
                  CONTENTS, ALLOC, LOAD, DATA
  2 .bss          00000172  008000d4  008000d4  00000df2  2**0
                  ALLOC
  3 .comment      00000030  00000000  00000000  00000df2  2**0
                  CONTENTS, READONLY
  4 .note.gnu.avr.deviceinfo 0000003c  00000000  00000000  00000e24  2**2
                  CONTENTS, READONLY
  5 .debug_aranges 00000090  00000000  00000000  00000e60  2**0
                  CONTENTS, READONLY, DEBUGGING
  6 .debug_info   0000145c  00000000  00000000  00000ef0  2**0
                  CONTENTS, READONLY, DEBUGGING
  7 .debug_abbrev 00000956  00000000  00000000  0000234c  2**0
                  CONTENTS, READONLY, DEBUGGING
  8 .debug_line   0000090a  00000000  00000000  00002ca2  2**0
                  CONTENTS, READONLY, DEBUGGING
  9 .debug_frame  0000017c  00000000  00000000  000035ac  2**2
                  CONTENTS, READONLY, DEBUGGING
 10 .debug_str    0000044b  00000000  00000000  00003728  2**0
                  CONTENTS, READONLY, DEBUGGING
 11 .debug_loc    00000864  00000000  00000000  00003b73  2**0
                  CONTENTS, READONLY, DEBUGGING
 12 .debug_ranges 00000070  00000000  00000000  000043d7  2**0
                  CONTENTS, READONLY, DEBUGGING

Disassembly of section .text:

00000000 <__vectors>:
   0:	0c 94 2a 00 	jmp	0x54	; 0x54 <__ctors_end>
   4:	0c 94 47 00 	jmp	0x8e	; 0x8e <__bad_interrupt>
   8:	0c 94 47 00 	jmp	0x8e	; 0x8e <__bad_interrupt>
   c:	0c 94 47 00 	jmp	0x8e	; 0x8e <__bad_interrupt>
  10:	0c 94 47 00 	jmp	0x8e	; 0x8e <__bad_interrupt>
  14:	0c 94 47 00 	jmp	0x8e	; 0x8e <__bad_interrupt>
  18:	0c 94 47 00 	jmp	0x8e	; 0x8e <__bad_interrupt>
  1c:	0c 94 47 00 	jmp	0x8e	; 0x8e <__bad_interrupt>
  20:	0c 94 47 00 	jmp	0x8e	; 0x8e <__bad_interrupt>
  24:	0c 94 47 00 	jmp	0x8e	; 0x8e <__bad_interrupt>
  28:	0c 94 47 00 	jmp	0x8e	; 0x8e <__bad_interrupt>
  2c:	0c 94 47 00 	jmp	0x8e	; 0x8e <__bad_interrupt>
  30:	0c 94 47 00 	jmp	0x8e	; 0x8e <__bad_interrupt>
  34:	0c 94 47 00 	jmp	0x8e	; 0x8e <__bad_interrupt>
  38:	0c 94 47 00 	jmp	0x8e	; 0x8e <__bad_interrupt>
  3c:	0c 94 47 00 	jmp	0x8e	; 0x8e <__bad_interrupt>
  40:	0c 94 47 00 	jmp	0x8e	; 0x8e <__bad_interrupt>
  44:	0c 94 47 00 	jmp	0x8e	; 0x8e <__bad_interrupt>
  48:	0c 94 47 00 	jmp	0x8e	; 0x8e <__bad_interrupt>
  4c:	0c 94 47 00 	jmp	0x8e	; 0x8e <__bad_interrupt>
  50:	0c 94 47 00 	jmp	0x8e	; 0x8e <__bad_interrupt>

00000054 <__ctors_end>:
  54:	11 24       	eor	r1, r1
  56:	1f be       	out	0x3f, r1	; 63
  58:	cf e5       	ldi	r28, 0x5F	; 95
  5a:	d8 e0       	ldi	r29, 0x08	; 8
  5c:	de bf       	out	0x3e, r29	; 62
  5e:	cd bf       	out	0x3d, r28	; 61

00000060 <__do_copy_data>:
  60:	10 e0       	ldi	r17, 0x00	; 0
  62:	a0 e6       	ldi	r26, 0x60	; 96
  64:	b0 e0       	ldi	r27, 0x00	; 0
  66:	ea ee       	ldi	r30, 0xEA	; 234
  68:	fc e0       	ldi	r31, 0x0C	; 12
  6a:	02 c0       	rjmp	.+4      	; 0x70 <__do_copy_data+0x10>
  6c:	05 90       	lpm	r0, Z+
  6e:	0d 92       	st	X+, r0
  70:	a4 3d       	cpi	r26, 0xD4	; 212
  72:	b1 07       	cpc	r27, r17
  74:	d9 f7       	brne	.-10     	; 0x6c <__do_copy_data+0xc>

00000076 <__do_clear_bss>:
  76:	22 e0       	ldi	r18, 0x02	; 2
  78:	a4 ed       	ldi	r26, 0xD4	; 212
  7a:	b0 e0       	ldi	r27, 0x00	; 0
  7c:	01 c0       	rjmp	.+2      	; 0x80 <.do_clear_bss_start>

0000007e <.do_clear_bss_loop>:
  7e:	1d 92       	st	X+, r1

00000080 <.do_clear_bss_start>:
  80:	a6 34       	cpi	r26, 0x46	; 70
  82:	b2 07       	cpc	r27, r18
  84:	e1 f7       	brne	.-8      	; 0x7e <.do_clear_bss_loop>
  86:	0e 94 d3 01 	call	0x3a6	; 0x3a6 <main>
  8a:	0c 94 73 06 	jmp	0xce6	; 0xce6 <_exit>

0000008e <__bad_interrupt>:
  8e:	0c 94 00 00 	jmp	0	; 0x0 <__vectors>

00000092 <LCDBusyLoop>:
	//This function waits till lcd is BUSY

	uint8_t busy,status=0x00,temp;

	//Change Port to input type because we are reading data
	LCD_DATA_DDR&=(~(0x0f<<LCD_DATA_POS));
  92:	81 b3       	in	r24, 0x11	; 17
  94:	87 78       	andi	r24, 0x87	; 135
  96:	81 bb       	out	0x11, r24	; 17

	//change LCD mode
	SET_RW();		//Read mode
  98:	91 9a       	sbi	0x12, 1	; 18
	CLEAR_RS();		//Read status
  9a:	90 98       	cbi	0x12, 0	; 18
	#else
		//round up by default
		__ticks_dc = (uint32_t)(ceil(fabs(__tmp)));
	#endif

	__builtin_avr_delay_cycles(__ticks_dc);
  9c:	00 00       	nop

	
	do
	{

		SET_E();
  9e:	92 9a       	sbi	0x12, 2	; 18
  a0:	00 00       	nop

		//Wait tDA for data to become available
		_delay_us(0.5);

		status=(LCD_DATA_PIN>>LCD_DATA_POS);
  a2:	80 b3       	in	r24, 0x10	; 16
  a4:	86 95       	lsr	r24
  a6:	86 95       	lsr	r24
  a8:	86 95       	lsr	r24
		status=status<<4;
  aa:	82 95       	swap	r24
  ac:	80 7f       	andi	r24, 0xF0	; 240
  ae:	00 00       	nop

		_delay_us(0.5);

		//Pull E low
		CLEAR_E();
  b0:	92 98       	cbi	0x12, 2	; 18
  b2:	00 00       	nop
		_delay_us(1);	//tEL

		SET_E();
  b4:	92 9a       	sbi	0x12, 2	; 18
  b6:	00 00       	nop
		_delay_us(0.5);

		temp=(LCD_DATA_PIN>>LCD_DATA_POS);
  b8:	90 b3       	in	r25, 0x10	; 16
  ba:	00 00       	nop
		status=status|temp;

		busy=status & 0b10000000;

		_delay_us(0.5);
		CLEAR_E();
  bc:	92 98       	cbi	0x12, 2	; 18
  be:	00 00       	nop
		_delay_us(1);	//tEL
	}while(busy);
  c0:	88 23       	and	r24, r24
  c2:	6c f3       	brlt	.-38     	; 0x9e <LCDBusyLoop+0xc>

	CLEAR_RW();		//write mode
  c4:	91 98       	cbi	0x12, 1	; 18
	//Change Port to output
	LCD_DATA_DDR|=(0x0F<<LCD_DATA_POS);
  c6:	81 b3       	in	r24, 0x11	; 17
  c8:	88 67       	ori	r24, 0x78	; 120
  ca:	81 bb       	out	0x11, r24	; 17
  cc:	08 95       	ret

000000ce <LCDByte>:
//NOTE: THIS FUNCTION RETURS ONLY WHEN LCD HAS PROCESSED THE COMMAND

uint8_t hn,ln;			//Nibbles
uint8_t temp;

hn=c>>4;
  ce:	28 2f       	mov	r18, r24
  d0:	22 95       	swap	r18
  d2:	2f 70       	andi	r18, 0x0F	; 15
ln=(c & 0x0F);
  d4:	8f 70       	andi	r24, 0x0F	; 15

if(isdata==0)
  d6:	61 11       	cpse	r22, r1
  d8:	02 c0       	rjmp	.+4      	; 0xde <LCDByte+0x10>
	CLEAR_RS();
  da:	90 98       	cbi	0x12, 0	; 18
  dc:	01 c0       	rjmp	.+2      	; 0xe0 <LCDByte+0x12>
else
	SET_RS();
  de:	90 9a       	sbi	0x12, 0	; 18
  e0:	00 00       	nop

_delay_us(0.500);		//tAS

SET_E();
  e2:	92 9a       	sbi	0x12, 2	; 18

//Send high nibble

temp=(LCD_DATA_PORT & (~(0X0F<<LCD_DATA_POS)))|((hn<<LCD_DATA_POS));
  e4:	92 b3       	in	r25, 0x12	; 18
  e6:	22 0f       	add	r18, r18
  e8:	22 0f       	add	r18, r18
  ea:	22 0f       	add	r18, r18
  ec:	97 78       	andi	r25, 0x87	; 135
  ee:	92 2b       	or	r25, r18
LCD_DATA_PORT=temp;
  f0:	92 bb       	out	0x12, r25	; 18
  f2:	00 00       	nop

_delay_us(1);			//tEH

//Now data lines are stable pull E low for transmission

CLEAR_E();
  f4:	92 98       	cbi	0x12, 2	; 18
  f6:	00 00       	nop

_delay_us(1);

//Send the lower nibble
SET_E();
  f8:	92 9a       	sbi	0x12, 2	; 18

temp=(LCD_DATA_PORT & (~(0X0F<<LCD_DATA_POS)))|((ln<<LCD_DATA_POS));
  fa:	92 b3       	in	r25, 0x12	; 18
  fc:	88 0f       	add	r24, r24
  fe:	88 0f       	add	r24, r24
 100:	88 0f       	add	r24, r24
 102:	97 78       	andi	r25, 0x87	; 135
 104:	89 2b       	or	r24, r25

LCD_DATA_PORT=temp;
 106:	82 bb       	out	0x12, r24	; 18
 108:	00 00       	nop

_delay_us(1);			//tEH

//SEND

CLEAR_E();
 10a:	92 98       	cbi	0x12, 2	; 18
 10c:	00 00       	nop

_delay_us(1);			//tEL

LCDBusyLoop();
 10e:	0e 94 49 00 	call	0x92	; 0x92 <LCDBusyLoop>
 112:	08 95       	ret

00000114 <LCDInit>:
	LCD_DATA_DDR|=(0x0F<<LCD_DATA_POS);

}

void LCDInit(uint8_t style)
{
 114:	cf 93       	push	r28
 116:	c8 2f       	mov	r28, r24
	#else
		//round up by default
		__ticks_dc = (uint32_t)(ceil(fabs(__tmp)));
	#endif

	__builtin_avr_delay_cycles(__ticks_dc);
 118:	8b e4       	ldi	r24, 0x4B	; 75
 11a:	9d e1       	ldi	r25, 0x1D	; 29
 11c:	01 97       	sbiw	r24, 0x01	; 1
 11e:	f1 f7       	brne	.-4      	; 0x11c <LCDInit+0x8>
 120:	00 c0       	rjmp	.+0      	; 0x122 <LCDInit+0xe>
 122:	00 00       	nop
	
	//After power on Wait for LCD to Initialize
	_delay_ms(30);
	
	//Set IO Ports
	LCD_DATA_DDR|=(0x0F<<LCD_DATA_POS);
 124:	91 b3       	in	r25, 0x11	; 17
 126:	98 67       	ori	r25, 0x78	; 120
 128:	91 bb       	out	0x11, r25	; 17
	LCD_E_DDR|=(1<<LCD_E_POS);
 12a:	8a 9a       	sbi	0x11, 2	; 17
	LCD_RS_DDR|=(1<<LCD_RS_POS);
 12c:	88 9a       	sbi	0x11, 0	; 17
	LCD_RW_DDR|=(1<<LCD_RW_POS);
 12e:	89 9a       	sbi	0x11, 1	; 17

	LCD_DATA_PORT&=(~(0x0F<<LCD_DATA_POS));
 130:	92 b3       	in	r25, 0x12	; 18
 132:	97 78       	andi	r25, 0x87	; 135
 134:	92 bb       	out	0x12, r25	; 18
	CLEAR_E();
 136:	92 98       	cbi	0x12, 2	; 18
	CLEAR_RW();
 138:	91 98       	cbi	0x12, 1	; 18
	CLEAR_RS();
 13a:	90 98       	cbi	0x12, 0	; 18
	#else
		//round up by default
		__ticks_dc = (uint32_t)(ceil(fabs(__tmp)));
	#endif

	__builtin_avr_delay_cycles(__ticks_dc);
 13c:	00 00       	nop

	//Set 4-bit mode
	_delay_us(0.3);	//tAS

	SET_E();
 13e:	92 9a       	sbi	0x12, 2	; 18
	LCD_DATA_PORT|=((0b00000010)<<LCD_DATA_POS); //[B] To transfer 0b00100000 i was using LCD_DATA_PORT|=0b00100000
 140:	94 9a       	sbi	0x12, 4	; 18
 142:	00 00       	nop
	_delay_us(1);
	CLEAR_E();
 144:	92 98       	cbi	0x12, 2	; 18
 146:	00 00       	nop
	_delay_us(1);
	
	//Wait for LCD to execute the Functionset Command
	LCDBusyLoop();                                    //[B] Forgot this delay
 148:	0e 94 49 00 	call	0x92	; 0x92 <LCDBusyLoop>

	//Now the LCD is in 4-bit mode

	LCDCmd(0b00001100|style);	//Display On
 14c:	60 e0       	ldi	r22, 0x00	; 0
 14e:	8c 2f       	mov	r24, r28
 150:	8c 60       	ori	r24, 0x0C	; 12
 152:	0e 94 67 00 	call	0xce	; 0xce <LCDByte>
	LCDCmd(0b00101000);			//function set 4-bit,2 line 5x7 dot format
 156:	60 e0       	ldi	r22, 0x00	; 0
 158:	88 e2       	ldi	r24, 0x28	; 40
 15a:	0e 94 67 00 	call	0xce	; 0xce <LCDByte>

	/* Custom Char */
	LCDCmd(0b01000000);
 15e:	60 e0       	ldi	r22, 0x00	; 0
 160:	80 e4       	ldi	r24, 0x40	; 64
 162:	0e 94 67 00 	call	0xce	; 0xce <LCDByte>
break;
case 3://4 line starts at 0xD4(0b11010100)
x|=0b11010100;
break;
}
LCDCmd(x);
 166:	60 e0       	ldi	r22, 0x00	; 0
 168:	80 e8       	ldi	r24, 0x80	; 128
 16a:	0e 94 67 00 	call	0xce	; 0xce <LCDByte>
	//for(__i=0;__i<sizeof(__cgram);__i++)
		//LCDData(__cgram[__i]);
	
	LCDGotoXY(0,0);

}
 16e:	cf 91       	pop	r28
 170:	08 95       	ret

00000172 <LCDWriteString>:
void LCDWriteString(const char *msg)
{
 172:	0f 93       	push	r16
 174:	1f 93       	push	r17
 176:	cf 93       	push	r28
 178:	df 93       	push	r29
 17a:	8c 01       	movw	r16, r24
		
	In the same way you can insert any syblom numbered 0-7 	


	*****************************************************************/
 while(*msg!='\0')
 17c:	fc 01       	movw	r30, r24
 17e:	80 81       	ld	r24, Z
 180:	88 23       	and	r24, r24
 182:	09 f1       	breq	.+66     	; 0x1c6 <LCDWriteString+0x54>
 {
 	//Custom Char Support
	if(*msg=='%')
 184:	85 32       	cpi	r24, 0x25	; 37
 186:	a9 f4       	brne	.+42     	; 0x1b2 <LCDWriteString+0x40>
	{
		msg++;
 188:	e8 01       	movw	r28, r16
 18a:	21 96       	adiw	r28, 0x01	; 1
		int8_t cc=*msg-'0';
 18c:	f8 01       	movw	r30, r16
 18e:	81 81       	ldd	r24, Z+1	; 0x01
 190:	80 53       	subi	r24, 0x30	; 48

		if(cc>=0 && cc<=7)
 192:	88 30       	cpi	r24, 0x08	; 8
 194:	20 f4       	brcc	.+8      	; 0x19e <LCDWriteString+0x2c>
		{
			LCDData(cc);
 196:	61 e0       	ldi	r22, 0x01	; 1
 198:	0e 94 67 00 	call	0xce	; 0xce <LCDByte>
 19c:	0e c0       	rjmp	.+28     	; 0x1ba <LCDWriteString+0x48>
		}
		else
		{
			LCDData('%');
 19e:	61 e0       	ldi	r22, 0x01	; 1
 1a0:	85 e2       	ldi	r24, 0x25	; 37
 1a2:	0e 94 67 00 	call	0xce	; 0xce <LCDByte>
			LCDData(*msg);
 1a6:	61 e0       	ldi	r22, 0x01	; 1
 1a8:	f8 01       	movw	r30, r16
 1aa:	81 81       	ldd	r24, Z+1	; 0x01
 1ac:	0e 94 67 00 	call	0xce	; 0xce <LCDByte>
 1b0:	04 c0       	rjmp	.+8      	; 0x1ba <LCDWriteString+0x48>
		}
	}
	else
	{
		LCDData(*msg);
 1b2:	61 e0       	ldi	r22, 0x01	; 1
 1b4:	0e 94 67 00 	call	0xce	; 0xce <LCDByte>
 1b8:	e8 01       	movw	r28, r16
	}
	msg++;
 1ba:	8e 01       	movw	r16, r28
 1bc:	0f 5f       	subi	r16, 0xFF	; 255
 1be:	1f 4f       	sbci	r17, 0xFF	; 255
		
	In the same way you can insert any syblom numbered 0-7 	


	*****************************************************************/
 while(*msg!='\0')
 1c0:	89 81       	ldd	r24, Y+1	; 0x01
 1c2:	81 11       	cpse	r24, r1
 1c4:	df cf       	rjmp	.-66     	; 0x184 <LCDWriteString+0x12>
	{
		LCDData(*msg);
	}
	msg++;
 }
}
 1c6:	df 91       	pop	r29
 1c8:	cf 91       	pop	r28
 1ca:	1f 91       	pop	r17
 1cc:	0f 91       	pop	r16
 1ce:	08 95       	ret

000001d0 <LCDWriteInt>:

void LCDWriteInt(int val,unsigned int field_length)
{
 1d0:	ef 92       	push	r14
 1d2:	ff 92       	push	r15
 1d4:	0f 93       	push	r16
 1d6:	1f 93       	push	r17
 1d8:	cf 93       	push	r28
 1da:	df 93       	push	r29
 1dc:	00 d0       	rcall	.+0      	; 0x1de <LCDWriteInt+0xe>
 1de:	00 d0       	rcall	.+0      	; 0x1e0 <LCDWriteInt+0x10>
 1e0:	1f 92       	push	r1
 1e2:	cd b7       	in	r28, 0x3d	; 61
 1e4:	de b7       	in	r29, 0x3e	; 62
 1e6:	7b 01       	movw	r14, r22
	2)unsigned int field_length :total length of field in which the value is printed
	must be between 1-5 if it is -1 the field length is no of digits in the val

	****************************************************************/

	char str[5]={0,0,0,0,0};
 1e8:	fe 01       	movw	r30, r28
 1ea:	31 96       	adiw	r30, 0x01	; 1
 1ec:	25 e0       	ldi	r18, 0x05	; 5
 1ee:	df 01       	movw	r26, r30
 1f0:	1d 92       	st	X+, r1
 1f2:	2a 95       	dec	r18
 1f4:	e9 f7       	brne	.-6      	; 0x1f0 <LCDWriteInt+0x20>
	int i=4,j=0;
	while(val)
 1f6:	00 97       	sbiw	r24, 0x00	; 0
 1f8:	59 f0       	breq	.+22     	; 0x210 <LCDWriteInt+0x40>
 1fa:	35 96       	adiw	r30, 0x05	; 5
	{
	str[i]=val%10;
 1fc:	2a e0       	ldi	r18, 0x0A	; 10
 1fe:	30 e0       	ldi	r19, 0x00	; 0
 200:	b9 01       	movw	r22, r18
 202:	0e 94 4b 06 	call	0xc96	; 0xc96 <__divmodhi4>
 206:	82 93       	st	-Z, r24
	val=val/10;
 208:	86 2f       	mov	r24, r22
 20a:	97 2f       	mov	r25, r23

	****************************************************************/

	char str[5]={0,0,0,0,0};
	int i=4,j=0;
	while(val)
 20c:	00 97       	sbiw	r24, 0x00	; 0
 20e:	c1 f7       	brne	.-16     	; 0x200 <LCDWriteInt+0x30>
	{
	str[i]=val%10;
	val=val/10;
	i--;
	}
	if(field_length==-1)
 210:	bf ef       	ldi	r27, 0xFF	; 255
 212:	eb 16       	cp	r14, r27
 214:	fb 06       	cpc	r15, r27
 216:	69 f4       	brne	.+26     	; 0x232 <LCDWriteInt+0x62>
		while(str[j]==0) j++;
 218:	89 81       	ldd	r24, Y+1	; 0x01
 21a:	81 11       	cpse	r24, r1
 21c:	1e c0       	rjmp	.+60     	; 0x25a <LCDWriteInt+0x8a>
 21e:	fe 01       	movw	r30, r28
 220:	32 96       	adiw	r30, 0x02	; 2
 222:	00 e0       	ldi	r16, 0x00	; 0
 224:	10 e0       	ldi	r17, 0x00	; 0
 226:	0f 5f       	subi	r16, 0xFF	; 255
 228:	1f 4f       	sbci	r17, 0xFF	; 255
 22a:	81 91       	ld	r24, Z+
 22c:	88 23       	and	r24, r24
 22e:	d9 f3       	breq	.-10     	; 0x226 <LCDWriteInt+0x56>
 230:	10 c0       	rjmp	.+32     	; 0x252 <LCDWriteInt+0x82>
	else
		j=5-field_length;
 232:	05 e0       	ldi	r16, 0x05	; 5
 234:	10 e0       	ldi	r17, 0x00	; 0
 236:	0e 19       	sub	r16, r14
 238:	1f 09       	sbc	r17, r15
 23a:	0b c0       	rjmp	.+22     	; 0x252 <LCDWriteInt+0x82>

	if(val<0) LCDData('-');
	for(i=j;i<5;i++)
	{
	LCDData(48+str[i]);
 23c:	f8 01       	movw	r30, r16
 23e:	81 91       	ld	r24, Z+
 240:	8f 01       	movw	r16, r30
 242:	61 e0       	ldi	r22, 0x01	; 1
 244:	80 5d       	subi	r24, 0xD0	; 208
 246:	0e 94 67 00 	call	0xce	; 0xce <LCDByte>
		while(str[j]==0) j++;
	else
		j=5-field_length;

	if(val<0) LCDData('-');
	for(i=j;i<5;i++)
 24a:	0e 15       	cp	r16, r14
 24c:	1f 05       	cpc	r17, r15
 24e:	b1 f7       	brne	.-20     	; 0x23c <LCDWriteInt+0x6c>
 250:	11 c0       	rjmp	.+34     	; 0x274 <LCDWriteInt+0xa4>
 252:	05 30       	cpi	r16, 0x05	; 5
 254:	11 05       	cpc	r17, r1
 256:	1c f0       	brlt	.+6      	; 0x25e <LCDWriteInt+0x8e>
 258:	0d c0       	rjmp	.+26     	; 0x274 <LCDWriteInt+0xa4>
	str[i]=val%10;
	val=val/10;
	i--;
	}
	if(field_length==-1)
		while(str[j]==0) j++;
 25a:	00 e0       	ldi	r16, 0x00	; 0
 25c:	10 e0       	ldi	r17, 0x00	; 0
 25e:	81 e0       	ldi	r24, 0x01	; 1
 260:	90 e0       	ldi	r25, 0x00	; 0
 262:	8c 0f       	add	r24, r28
 264:	9d 1f       	adc	r25, r29
 266:	08 0f       	add	r16, r24
 268:	19 1f       	adc	r17, r25
 26a:	7e 01       	movw	r14, r28
 26c:	96 e0       	ldi	r25, 0x06	; 6
 26e:	e9 0e       	add	r14, r25
 270:	f1 1c       	adc	r15, r1
 272:	e4 cf       	rjmp	.-56     	; 0x23c <LCDWriteInt+0x6c>
	if(val<0) LCDData('-');
	for(i=j;i<5;i++)
	{
	LCDData(48+str[i]);
	}
}
 274:	0f 90       	pop	r0
 276:	0f 90       	pop	r0
 278:	0f 90       	pop	r0
 27a:	0f 90       	pop	r0
 27c:	0f 90       	pop	r0
 27e:	df 91       	pop	r29
 280:	cf 91       	pop	r28
 282:	1f 91       	pop	r17
 284:	0f 91       	pop	r16
 286:	ff 90       	pop	r15
 288:	ef 90       	pop	r14
 28a:	08 95       	ret

0000028c <LCDWritefloat>:

//float number printing function

void LCDWritefloat(double val,unsigned int flbp,unsigned int flap)

{
 28c:	4f 92       	push	r4
 28e:	5f 92       	push	r5
 290:	6f 92       	push	r6
 292:	7f 92       	push	r7
 294:	af 92       	push	r10
 296:	bf 92       	push	r11
 298:	cf 92       	push	r12
 29a:	df 92       	push	r13
 29c:	ef 92       	push	r14
 29e:	ff 92       	push	r15
 2a0:	0f 93       	push	r16
 2a2:	1f 93       	push	r17
 2a4:	cf 93       	push	r28
 2a6:	6b 01       	movw	r12, r22
 2a8:	7c 01       	movw	r14, r24
 2aa:	5a 01       	movw	r10, r20
 2ac:	89 01       	movw	r16, r18
	uint16_t y=0;
	uint8_t x;
	double f=0.0;

	f = val;
	y = f;
 2ae:	0e 94 c6 04 	call	0x98c	; 0x98c <__fixunssfsi>
 2b2:	2b 01       	movw	r4, r22
 2b4:	3c 01       	movw	r6, r24
	f -= y;
 2b6:	80 e0       	ldi	r24, 0x00	; 0
 2b8:	90 e0       	ldi	r25, 0x00	; 0
 2ba:	0e 94 f5 04 	call	0x9ea	; 0x9ea <__floatunsisf>
 2be:	9b 01       	movw	r18, r22
 2c0:	ac 01       	movw	r20, r24
 2c2:	c7 01       	movw	r24, r14
 2c4:	b6 01       	movw	r22, r12
 2c6:	0e 94 e7 03 	call	0x7ce	; 0x7ce <__subsf3>
 2ca:	6b 01       	movw	r12, r22
 2cc:	7c 01       	movw	r14, r24
	for(x=0;x<flap;x++)
 2ce:	01 15       	cp	r16, r1
 2d0:	11 05       	cpc	r17, r1
 2d2:	89 f0       	breq	.+34     	; 0x2f6 <LCDWritefloat+0x6a>
 2d4:	c0 e0       	ldi	r28, 0x00	; 0
	f *=10;
 2d6:	20 e0       	ldi	r18, 0x00	; 0
 2d8:	30 e0       	ldi	r19, 0x00	; 0
 2da:	40 e2       	ldi	r20, 0x20	; 32
 2dc:	51 e4       	ldi	r21, 0x41	; 65
 2de:	c7 01       	movw	r24, r14
 2e0:	b6 01       	movw	r22, r12
 2e2:	0e 94 83 05 	call	0xb06	; 0xb06 <__mulsf3>
 2e6:	6b 01       	movw	r12, r22
 2e8:	7c 01       	movw	r14, r24
	double f=0.0;

	f = val;
	y = f;
	f -= y;
	for(x=0;x<flap;x++)
 2ea:	cf 5f       	subi	r28, 0xFF	; 255
 2ec:	2c 2f       	mov	r18, r28
 2ee:	30 e0       	ldi	r19, 0x00	; 0
 2f0:	20 17       	cp	r18, r16
 2f2:	31 07       	cpc	r19, r17
 2f4:	80 f3       	brcs	.-32     	; 0x2d6 <LCDWritefloat+0x4a>
	f *=10;

	LCDWriteInt(y,flbp);
 2f6:	b5 01       	movw	r22, r10
 2f8:	c2 01       	movw	r24, r4
 2fa:	0e 94 e8 00 	call	0x1d0	; 0x1d0 <LCDWriteInt>
	LCDWriteString(".");
 2fe:	80 e6       	ldi	r24, 0x60	; 96
 300:	90 e0       	ldi	r25, 0x00	; 0
 302:	0e 94 b9 00 	call	0x172	; 0x172 <LCDWriteString>
	y = f;
 306:	c7 01       	movw	r24, r14
 308:	b6 01       	movw	r22, r12
 30a:	0e 94 c6 04 	call	0x98c	; 0x98c <__fixunssfsi>
 30e:	dc 01       	movw	r26, r24
 310:	cb 01       	movw	r24, r22
	LCDWriteInt(y,flap);
 312:	b8 01       	movw	r22, r16
 314:	0e 94 e8 00 	call	0x1d0	; 0x1d0 <LCDWriteInt>

}
 318:	cf 91       	pop	r28
 31a:	1f 91       	pop	r17
 31c:	0f 91       	pop	r16
 31e:	ff 90       	pop	r15
 320:	ef 90       	pop	r14
 322:	df 90       	pop	r13
 324:	cf 90       	pop	r12
 326:	bf 90       	pop	r11
 328:	af 90       	pop	r10
 32a:	7f 90       	pop	r7
 32c:	6f 90       	pop	r6
 32e:	5f 90       	pop	r5
 330:	4f 90       	pop	r4
 332:	08 95       	ret

00000334 <LCDGotoXY>:

void LCDGotoXY(uint8_t x,uint8_t y)
{
if(x<40)
 334:	88 32       	cpi	r24, 0x28	; 40
 336:	90 f4       	brcc	.+36     	; 0x35c <LCDGotoXY+0x28>
{
switch(y)
 338:	61 30       	cpi	r22, 0x01	; 1
 33a:	41 f0       	breq	.+16     	; 0x34c <LCDGotoXY+0x18>
 33c:	28 f0       	brcs	.+10     	; 0x348 <LCDGotoXY+0x14>
 33e:	62 30       	cpi	r22, 0x02	; 2
 340:	39 f0       	breq	.+14     	; 0x350 <LCDGotoXY+0x1c>
 342:	63 30       	cpi	r22, 0x03	; 3
 344:	39 f0       	breq	.+14     	; 0x354 <LCDGotoXY+0x20>
 346:	07 c0       	rjmp	.+14     	; 0x356 <LCDGotoXY+0x22>
{
case 0://1 line starts at 0×80(0b10000000)
x|=0b10000000;
 348:	80 68       	ori	r24, 0x80	; 128
break;
 34a:	05 c0       	rjmp	.+10     	; 0x356 <LCDGotoXY+0x22>
case 1://2 line starts at 0xC0(0b11000000)
x|=0b11000000;
 34c:	80 6c       	ori	r24, 0xC0	; 192
break;
 34e:	03 c0       	rjmp	.+6      	; 0x356 <LCDGotoXY+0x22>
case 2://3 line starts at 0×94(0b10010100)
x|=0b10010100;
 350:	84 69       	ori	r24, 0x94	; 148
break;
 352:	01 c0       	rjmp	.+2      	; 0x356 <LCDGotoXY+0x22>
case 3://4 line starts at 0xD4(0b11010100)
x|=0b11010100;
 354:	84 6d       	ori	r24, 0xD4	; 212
break;
}
LCDCmd(x);
 356:	60 e0       	ldi	r22, 0x00	; 0
 358:	0e 94 67 00 	call	0xce	; 0xce <LCDByte>
 35c:	08 95       	ret

0000035e <LCDCls>:
	}
}

void LCDCls(void)
{
		LCDWriteStringXY(0,0,"                ");
 35e:	60 e0       	ldi	r22, 0x00	; 0
 360:	80 e0       	ldi	r24, 0x00	; 0
 362:	0e 94 9a 01 	call	0x334	; 0x334 <LCDGotoXY>
 366:	82 e6       	ldi	r24, 0x62	; 98
 368:	90 e0       	ldi	r25, 0x00	; 0
 36a:	0e 94 b9 00 	call	0x172	; 0x172 <LCDWriteString>
		LCDWriteStringXY(0,1,"                ");
 36e:	61 e0       	ldi	r22, 0x01	; 1
 370:	80 e0       	ldi	r24, 0x00	; 0
 372:	0e 94 9a 01 	call	0x334	; 0x334 <LCDGotoXY>
 376:	82 e6       	ldi	r24, 0x62	; 98
 378:	90 e0       	ldi	r25, 0x00	; 0
 37a:	0e 94 b9 00 	call	0x172	; 0x172 <LCDWriteString>
 37e:	08 95       	ret

00000380 <adcinit>:
}
void adcinit()
{
	ADCSRA |= 1<<ADEN; // Enable pin high
 380:	37 9a       	sbi	0x06, 7	; 6
	//Prescalar value 4, ADPS2 = 0, ADPS1 = 1, ADPS0 = 0 ;
	ADCSRA |= (1<<ADPS1) ;
 382:	31 9a       	sbi	0x06, 1	; 6
	ADMUX |= 1 << REFS0; // Now we are using AVCC voltage, internally 5 volts.
 384:	3e 9a       	sbi	0x07, 6	; 7
 386:	08 95       	ret

00000388 <ADC_Read_0>:

int ADC_Read_0()
{
	int adc_value = 0;
	//ADMUX |= 1<<MUX0; // we are using channel 1 as default
	ADCSRA |= 1<<ADSC; // conversion started
 388:	36 9a       	sbi	0x06, 6	; 6
	//wait until flag becomes 1, conversion complete
	while((ADCSRA & (1<<ADIF)));
 38a:	34 99       	sbic	0x06, 4	; 6
 38c:	fe cf       	rjmp	.-4      	; 0x38a <ADC_Read_0+0x2>
	ADCSRA |= 1<<ADIF ; // started a new conversion
 38e:	34 9a       	sbi	0x06, 4	; 6
	adc_value=ADCW;//the value is saved at ADCW register, we are reading it
 390:	84 b1       	in	r24, 0x04	; 4
 392:	95 b1       	in	r25, 0x05	; 5
	return adc_value;
}
 394:	08 95       	ret

00000396 <ADC_Read_1>:

int ADC_Read_1()
{
	int adc_value = 0;
	ADMUX |= 1<<MUX0; // we are using channel 1 as default
 396:	38 9a       	sbi	0x07, 0	; 7
	ADCSRA |= 1<<ADSC; // conversion started
 398:	36 9a       	sbi	0x06, 6	; 6
	//wait until flag becomes 1, conversion complete
	while((ADCSRA & (1<<ADIF)));
 39a:	34 99       	sbic	0x06, 4	; 6
 39c:	fe cf       	rjmp	.-4      	; 0x39a <ADC_Read_1+0x4>
	ADCSRA |= 1<<ADIF ; // started a new conversion
 39e:	34 9a       	sbi	0x06, 4	; 6
	adc_value=ADCW;//the value is saved at ADCW register, we are reading it
 3a0:	84 b1       	in	r24, 0x04	; 4
 3a2:	95 b1       	in	r25, 0x05	; 5
	return adc_value;
 3a4:	08 95       	ret

000003a6 <main>:
int samples[sample],i,res,choice;
float sqsum, analog_volt, set_res, resistance;
void LCDCls(void);

int main(void)
{
 3a6:	cf 93       	push	r28
 3a8:	df 93       	push	r29
 3aa:	00 d0       	rcall	.+0      	; 0x3ac <main+0x6>
 3ac:	00 d0       	rcall	.+0      	; 0x3ae <main+0x8>
 3ae:	cd b7       	in	r28, 0x3d	; 61
 3b0:	de b7       	in	r29, 0x3e	; 62
	choice = 1;
 3b2:	81 e0       	ldi	r24, 0x01	; 1
 3b4:	90 e0       	ldi	r25, 0x00	; 0
 3b6:	90 93 df 00 	sts	0x00DF, r25	; 0x8000df <choice+0x1>
 3ba:	80 93 de 00 	sts	0x00DE, r24	; 0x8000de <choice>
    LCDInit(LS_NONE);
 3be:	80 e0       	ldi	r24, 0x00	; 0
 3c0:	0e 94 8a 00 	call	0x114	; 0x114 <LCDInit>
	LCDCls();
 3c4:	0e 94 af 01 	call	0x35e	; 0x35e <LCDCls>
	LCDWriteStringXY(0,0,"<   Voltage    >");
 3c8:	60 e0       	ldi	r22, 0x00	; 0
 3ca:	80 e0       	ldi	r24, 0x00	; 0
 3cc:	0e 94 9a 01 	call	0x334	; 0x334 <LCDGotoXY>
 3d0:	83 e7       	ldi	r24, 0x73	; 115
 3d2:	90 e0       	ldi	r25, 0x00	; 0
 3d4:	0e 94 b9 00 	call	0x172	; 0x172 <LCDWriteString>
	adcinit();
 3d8:	0e 94 c0 01 	call	0x380	; 0x380 <adcinit>
	DDRB = 0 ;
 3dc:	17 ba       	out	0x17, r1	; 23
				choice = 2;
				LCDWriteStringXY(0,0,"<   Resistor   >");
			}
			else
			{
				choice = 1;
 3de:	ee 24       	eor	r14, r14
 3e0:	e3 94       	inc	r14
 3e2:	f1 2c       	mov	r15, r1
		int inC = PINB & (1<<PB0);
		if(inA)
		{
			if(choice == 1)
			{
				choice = 2;
 3e4:	02 e0       	ldi	r16, 0x02	; 2
 3e6:	10 e0       	ldi	r17, 0x00	; 0
	LCDWriteStringXY(0,0,"<   Voltage    >");
	adcinit();
	DDRB = 0 ;
	while(1)
	{
		int inA = PINB & (1<<PB1);
 3e8:	86 b3       	in	r24, 0x16	; 22
		int inC = PINB & (1<<PB0);
 3ea:	96 b3       	in	r25, 0x16	; 22
 3ec:	91 70       	andi	r25, 0x01	; 1
 3ee:	d9 2e       	mov	r13, r25
		if(inA)
 3f0:	81 ff       	sbrs	r24, 1
 3f2:	28 c0       	rjmp	.+80     	; 0x444 <__LOCK_REGION_LENGTH__+0x44>
		{
			if(choice == 1)
 3f4:	80 91 de 00 	lds	r24, 0x00DE	; 0x8000de <choice>
 3f8:	90 91 df 00 	lds	r25, 0x00DF	; 0x8000df <choice+0x1>
 3fc:	01 97       	sbiw	r24, 0x01	; 1
 3fe:	69 f4       	brne	.+26     	; 0x41a <__LOCK_REGION_LENGTH__+0x1a>
			{
				choice = 2;
 400:	10 93 df 00 	sts	0x00DF, r17	; 0x8000df <choice+0x1>
 404:	00 93 de 00 	sts	0x00DE, r16	; 0x8000de <choice>
				LCDWriteStringXY(0,0,"<   Resistor   >");
 408:	60 e0       	ldi	r22, 0x00	; 0
 40a:	80 e0       	ldi	r24, 0x00	; 0
 40c:	0e 94 9a 01 	call	0x334	; 0x334 <LCDGotoXY>
 410:	84 e8       	ldi	r24, 0x84	; 132
 412:	90 e0       	ldi	r25, 0x00	; 0
 414:	0e 94 b9 00 	call	0x172	; 0x172 <LCDWriteString>
 418:	0c c0       	rjmp	.+24     	; 0x432 <__LOCK_REGION_LENGTH__+0x32>
			}
			else
			{
				choice = 1;
 41a:	f0 92 df 00 	sts	0x00DF, r15	; 0x8000df <choice+0x1>
 41e:	e0 92 de 00 	sts	0x00DE, r14	; 0x8000de <choice>
				LCDWriteStringXY(0,0,"<   Voltage    >");
 422:	60 e0       	ldi	r22, 0x00	; 0
 424:	80 e0       	ldi	r24, 0x00	; 0
 426:	0e 94 9a 01 	call	0x334	; 0x334 <LCDGotoXY>
 42a:	83 e7       	ldi	r24, 0x73	; 115
 42c:	90 e0       	ldi	r25, 0x00	; 0
 42e:	0e 94 b9 00 	call	0x172	; 0x172 <LCDWriteString>
	#else
		//round up by default
		__ticks_dc = (uint32_t)(ceil(fabs(__tmp)));
	#endif

	__builtin_avr_delay_cycles(__ticks_dc);
 432:	2f e9       	ldi	r18, 0x9F	; 159
 434:	86 e8       	ldi	r24, 0x86	; 134
 436:	91 e0       	ldi	r25, 0x01	; 1
 438:	21 50       	subi	r18, 0x01	; 1
 43a:	80 40       	sbci	r24, 0x00	; 0
 43c:	90 40       	sbci	r25, 0x00	; 0
 43e:	e1 f7       	brne	.-8      	; 0x438 <__LOCK_REGION_LENGTH__+0x38>
 440:	00 c0       	rjmp	.+0      	; 0x442 <__LOCK_REGION_LENGTH__+0x42>
 442:	00 00       	nop
			}
			_delay_ms(500);
		}
		if(inC)
 444:	dd 20       	and	r13, r13
 446:	81 f2       	breq	.-96     	; 0x3e8 <main+0x42>
		{
			LCDCls();
 448:	0e 94 af 01 	call	0x35e	; 0x35e <LCDCls>
 44c:	af e9       	ldi	r26, 0x9F	; 159
 44e:	b6 e8       	ldi	r27, 0x86	; 134
 450:	e1 e0       	ldi	r30, 0x01	; 1
 452:	a1 50       	subi	r26, 0x01	; 1
 454:	b0 40       	sbci	r27, 0x00	; 0
 456:	e0 40       	sbci	r30, 0x00	; 0
 458:	e1 f7       	brne	.-8      	; 0x452 <__LOCK_REGION_LENGTH__+0x52>
 45a:	00 c0       	rjmp	.+0      	; 0x45c <__LOCK_REGION_LENGTH__+0x5c>
 45c:	00 00       	nop
			_delay_ms(500);
			if(choice == 1)
 45e:	80 91 de 00 	lds	r24, 0x00DE	; 0x8000de <choice>
 462:	90 91 df 00 	lds	r25, 0x00DF	; 0x8000df <choice+0x1>
 466:	01 97       	sbiw	r24, 0x01	; 1
 468:	09 f0       	breq	.+2      	; 0x46c <__LOCK_REGION_LENGTH__+0x6c>
 46a:	a1 c0       	rjmp	.+322    	; 0x5ae <__LOCK_REGION_LENGTH__+0x1ae>
			{
				LCDWriteStringXY(0,0,"Volatge : ");
 46c:	60 e0       	ldi	r22, 0x00	; 0
 46e:	80 e0       	ldi	r24, 0x00	; 0
 470:	0e 94 9a 01 	call	0x334	; 0x334 <LCDGotoXY>
 474:	85 e9       	ldi	r24, 0x95	; 149
 476:	90 e0       	ldi	r25, 0x00	; 0
 478:	0e 94 b9 00 	call	0x172	; 0x172 <LCDWriteString>
 47c:	08 ee       	ldi	r16, 0xE8	; 232
 47e:	10 e0       	ldi	r17, 0x00	; 0
 480:	0f 2e       	mov	r0, r31
 482:	f4 e4       	ldi	r31, 0x44	; 68
 484:	af 2e       	mov	r10, r31
 486:	f2 e0       	ldi	r31, 0x02	; 2
 488:	bf 2e       	mov	r11, r31
 48a:	f0 2d       	mov	r31, r0
 48c:	0f 2e       	mov	r0, r31
 48e:	fe ea       	ldi	r31, 0xAE	; 174
 490:	8f 2e       	mov	r8, r31
 492:	91 2c       	mov	r9, r1
 494:	f0 2d       	mov	r31, r0
				while (1)
				{
					for(i = 0; i<sample; i++)
 496:	10 92 dd 00 	sts	0x00DD, r1	; 0x8000dd <i+0x1>
 49a:	10 92 dc 00 	sts	0x00DC, r1	; 0x8000dc <i>
 49e:	e1 2c       	mov	r14, r1
 4a0:	f1 2c       	mov	r15, r1
					{
						samples[i] = ADC_Read_0();
 4a2:	0e 94 c4 01 	call	0x388	; 0x388 <ADC_Read_0>
 4a6:	97 01       	movw	r18, r14
 4a8:	22 0f       	add	r18, r18
 4aa:	33 1f       	adc	r19, r19
 4ac:	28 51       	subi	r18, 0x18	; 24
 4ae:	3f 4f       	sbci	r19, 0xFF	; 255
 4b0:	d9 01       	movw	r26, r18
 4b2:	8d 93       	st	X+, r24
 4b4:	9c 93       	st	X, r25
			if(choice == 1)
			{
				LCDWriteStringXY(0,0,"Volatge : ");
				while (1)
				{
					for(i = 0; i<sample; i++)
 4b6:	e0 90 dc 00 	lds	r14, 0x00DC	; 0x8000dc <i>
 4ba:	f0 90 dd 00 	lds	r15, 0x00DD	; 0x8000dd <i+0x1>
 4be:	bf ef       	ldi	r27, 0xFF	; 255
 4c0:	eb 1a       	sub	r14, r27
 4c2:	fb 0a       	sbc	r15, r27
 4c4:	f0 92 dd 00 	sts	0x00DD, r15	; 0x8000dd <i+0x1>
 4c8:	e0 92 dc 00 	sts	0x00DC, r14	; 0x8000dc <i>
 4cc:	ee ea       	ldi	r30, 0xAE	; 174
 4ce:	ee 16       	cp	r14, r30
 4d0:	f1 04       	cpc	r15, r1
 4d2:	3c f3       	brlt	.-50     	; 0x4a2 <__LOCK_REGION_LENGTH__+0xa2>
 4d4:	40 90 d4 00 	lds	r4, 0x00D4	; 0x8000d4 <__data_end>
 4d8:	50 90 d5 00 	lds	r5, 0x00D5	; 0x8000d5 <__data_end+0x1>
 4dc:	60 90 d6 00 	lds	r6, 0x00D6	; 0x8000d6 <__data_end+0x2>
 4e0:	70 90 d7 00 	lds	r7, 0x00D7	; 0x8000d7 <__data_end+0x3>
 4e4:	18 01       	movw	r2, r16
						samples[i] = ADC_Read_0();
					}
					
					for(i = 0; i<sample; i++)
					{
						samples[i]-=512;
 4e6:	d1 01       	movw	r26, r2
 4e8:	6d 91       	ld	r22, X+
 4ea:	7c 91       	ld	r23, X
 4ec:	72 50       	subi	r23, 0x02	; 2
 4ee:	f1 01       	movw	r30, r2
 4f0:	61 93       	st	Z+, r22
 4f2:	71 93       	st	Z+, r23
 4f4:	1f 01       	movw	r2, r30
						analog_volt = 88.47 * samples[i] / 1023.0 ;
 4f6:	07 2e       	mov	r0, r23
 4f8:	00 0c       	add	r0, r0
 4fa:	88 0b       	sbc	r24, r24
 4fc:	99 0b       	sbc	r25, r25
 4fe:	0e 94 f7 04 	call	0x9ee	; 0x9ee <__floatsisf>
 502:	24 ea       	ldi	r18, 0xA4	; 164
 504:	30 ef       	ldi	r19, 0xF0	; 240
 506:	40 eb       	ldi	r20, 0xB0	; 176
 508:	52 e4       	ldi	r21, 0x42	; 66
 50a:	0e 94 83 05 	call	0xb06	; 0xb06 <__mulsf3>
 50e:	20 e0       	ldi	r18, 0x00	; 0
 510:	30 ec       	ldi	r19, 0xC0	; 192
 512:	4f e7       	ldi	r20, 0x7F	; 127
 514:	54 e4       	ldi	r21, 0x44	; 68
 516:	0e 94 54 04 	call	0x8a8	; 0x8a8 <__divsf3>
 51a:	6b 01       	movw	r12, r22
 51c:	7c 01       	movw	r14, r24
						sqsum += (analog_volt*analog_volt);
 51e:	9b 01       	movw	r18, r22
 520:	ac 01       	movw	r20, r24
 522:	0e 94 83 05 	call	0xb06	; 0xb06 <__mulsf3>
 526:	9b 01       	movw	r18, r22
 528:	ac 01       	movw	r20, r24
 52a:	c3 01       	movw	r24, r6
 52c:	b2 01       	movw	r22, r4
 52e:	0e 94 e8 03 	call	0x7d0	; 0x7d0 <__addsf3>
 532:	2b 01       	movw	r4, r22
 534:	3c 01       	movw	r6, r24
					for(i = 0; i<sample; i++)
					{
						samples[i] = ADC_Read_0();
					}
					
					for(i = 0; i<sample; i++)
 536:	2a 14       	cp	r2, r10
 538:	3b 04       	cpc	r3, r11
 53a:	a9 f6       	brne	.-86     	; 0x4e6 <__LOCK_REGION_LENGTH__+0xe6>
 53c:	c0 92 d8 00 	sts	0x00D8, r12	; 0x8000d8 <analog_volt>
 540:	d0 92 d9 00 	sts	0x00D9, r13	; 0x8000d9 <analog_volt+0x1>
 544:	e0 92 da 00 	sts	0x00DA, r14	; 0x8000da <analog_volt+0x2>
 548:	f0 92 db 00 	sts	0x00DB, r15	; 0x8000db <analog_volt+0x3>
 54c:	90 92 dd 00 	sts	0x00DD, r9	; 0x8000dd <i+0x1>
 550:	80 92 dc 00 	sts	0x00DC, r8	; 0x8000dc <i>
						samples[i]-=512;
						analog_volt = 88.47 * samples[i] / 1023.0 ;
						sqsum += (analog_volt*analog_volt);
					}
					
					sqsum = sqrt(sqsum/sample);
 554:	20 e0       	ldi	r18, 0x00	; 0
 556:	30 e0       	ldi	r19, 0x00	; 0
 558:	4e e2       	ldi	r20, 0x2E	; 46
 55a:	53 e4       	ldi	r21, 0x43	; 67
 55c:	c3 01       	movw	r24, r6
 55e:	b2 01       	movw	r22, r4
 560:	0e 94 54 04 	call	0x8a8	; 0x8a8 <__divsf3>
 564:	0e 94 f6 05 	call	0xbec	; 0xbec <sqrt>
 568:	60 93 d4 00 	sts	0x00D4, r22	; 0x8000d4 <__data_end>
 56c:	70 93 d5 00 	sts	0x00D5, r23	; 0x8000d5 <__data_end+0x1>
 570:	80 93 d6 00 	sts	0x00D6, r24	; 0x8000d6 <__data_end+0x2>
 574:	90 93 d7 00 	sts	0x00D7, r25	; 0x8000d7 <__data_end+0x3>
					
					LCDWritefloatXY(0,1,sqsum,2,1);
 578:	61 e0       	ldi	r22, 0x01	; 1
 57a:	80 e0       	ldi	r24, 0x00	; 0
 57c:	0e 94 9a 01 	call	0x334	; 0x334 <LCDGotoXY>
 580:	60 91 d4 00 	lds	r22, 0x00D4	; 0x8000d4 <__data_end>
 584:	70 91 d5 00 	lds	r23, 0x00D5	; 0x8000d5 <__data_end+0x1>
 588:	80 91 d6 00 	lds	r24, 0x00D6	; 0x8000d6 <__data_end+0x2>
 58c:	90 91 d7 00 	lds	r25, 0x00D7	; 0x8000d7 <__data_end+0x3>
 590:	21 e0       	ldi	r18, 0x01	; 1
 592:	30 e0       	ldi	r19, 0x00	; 0
 594:	42 e0       	ldi	r20, 0x02	; 2
 596:	50 e0       	ldi	r21, 0x00	; 0
 598:	0e 94 46 01 	call	0x28c	; 0x28c <LCDWritefloat>
					LCDWriteStringXY(6,1,"Volts");
 59c:	61 e0       	ldi	r22, 0x01	; 1
 59e:	86 e0       	ldi	r24, 0x06	; 6
 5a0:	0e 94 9a 01 	call	0x334	; 0x334 <LCDGotoXY>
 5a4:	80 ea       	ldi	r24, 0xA0	; 160
 5a6:	90 e0       	ldi	r25, 0x00	; 0
 5a8:	0e 94 b9 00 	call	0x172	; 0x172 <LCDWriteString>
				}
 5ac:	74 cf       	rjmp	.-280    	; 0x496 <__LOCK_REGION_LENGTH__+0x96>
			}
			else
			{
				LCDWriteStringXY(0,0,"Resistance : ");
 5ae:	60 e0       	ldi	r22, 0x00	; 0
 5b0:	80 e0       	ldi	r24, 0x00	; 0
 5b2:	0e 94 9a 01 	call	0x334	; 0x334 <LCDGotoXY>
 5b6:	86 ea       	ldi	r24, 0xA6	; 166
 5b8:	90 e0       	ldi	r25, 0x00	; 0
 5ba:	0e 94 b9 00 	call	0x172	; 0x172 <LCDWriteString>
					else if(R2)
						set_res = 10 ;
					else if(R3)
						set_res = 1000 ;
					else if(R4)
						set_res = 100 ;
 5be:	0f 2e       	mov	r0, r31
 5c0:	41 2c       	mov	r4, r1
 5c2:	51 2c       	mov	r5, r1
 5c4:	f8 ec       	ldi	r31, 0xC8	; 200
 5c6:	6f 2e       	mov	r6, r31
 5c8:	f2 e4       	ldi	r31, 0x42	; 66
 5ca:	7f 2e       	mov	r7, r31
 5cc:	f0 2d       	mov	r31, r0
					int R4 = PINB & (1<<PB5);

					if(R1)
						set_res = 100 ;
					else if(R2)
						set_res = 10 ;
 5ce:	0f 2e       	mov	r0, r31
 5d0:	81 2c       	mov	r8, r1
 5d2:	91 2c       	mov	r9, r1
 5d4:	f0 e2       	ldi	r31, 0x20	; 32
 5d6:	af 2e       	mov	r10, r31
 5d8:	f1 e4       	ldi	r31, 0x41	; 65
 5da:	bf 2e       	mov	r11, r31
 5dc:	f0 2d       	mov	r31, r0
			else
			{
				LCDWriteStringXY(0,0,"Resistance : ");
				while(1)
				{
					int R1 = PINB & (1<<PB2);
 5de:	86 b3       	in	r24, 0x16	; 22
					int R2 = PINB & (1<<PB3);
 5e0:	96 b3       	in	r25, 0x16	; 22
					int R3 = PINB & (1<<PB4);
 5e2:	26 b3       	in	r18, 0x16	; 22
					int R4 = PINB & (1<<PB5);
 5e4:	36 b3       	in	r19, 0x16	; 22

					if(R1)
 5e6:	82 ff       	sbrs	r24, 2
 5e8:	13 c0       	rjmp	.+38     	; 0x610 <__LOCK_REGION_LENGTH__+0x210>
						set_res = 100 ;
 5ea:	40 92 e0 00 	sts	0x00E0, r4	; 0x8000e0 <set_res>
 5ee:	50 92 e1 00 	sts	0x00E1, r5	; 0x8000e1 <set_res+0x1>
 5f2:	60 92 e2 00 	sts	0x00E2, r6	; 0x8000e2 <set_res+0x2>
 5f6:	70 92 e3 00 	sts	0x00E3, r7	; 0x8000e3 <set_res+0x3>
					{
						LCDWriteStringXY(0,1,"1               ");
						continue;
					}
					
					res  = ADC_Read_1();
 5fa:	0e 94 cb 01 	call	0x396	; 0x396 <ADC_Read_1>
 5fe:	90 93 45 02 	sts	0x0245, r25	; 0x800245 <res+0x1>
 602:	80 93 44 02 	sts	0x0244, r24	; 0x800244 <res>
					
					if(res!=1023)
 606:	8f 3f       	cpi	r24, 0xFF	; 255
 608:	f3 e0       	ldi	r31, 0x03	; 3
 60a:	9f 07       	cpc	r25, r31
 60c:	c9 f5       	brne	.+114    	; 0x680 <__LOCK_REGION_LENGTH__+0x280>
 60e:	ca c0       	rjmp	.+404    	; 0x7a4 <__LOCK_REGION_LENGTH__+0x3a4>
					int R3 = PINB & (1<<PB4);
					int R4 = PINB & (1<<PB5);

					if(R1)
						set_res = 100 ;
					else if(R2)
 610:	93 ff       	sbrs	r25, 3
 612:	13 c0       	rjmp	.+38     	; 0x63a <__LOCK_REGION_LENGTH__+0x23a>
						set_res = 10 ;
 614:	80 92 e0 00 	sts	0x00E0, r8	; 0x8000e0 <set_res>
 618:	90 92 e1 00 	sts	0x00E1, r9	; 0x8000e1 <set_res+0x1>
 61c:	a0 92 e2 00 	sts	0x00E2, r10	; 0x8000e2 <set_res+0x2>
 620:	b0 92 e3 00 	sts	0x00E3, r11	; 0x8000e3 <set_res+0x3>
					{
						LCDWriteStringXY(0,1,"1               ");
						continue;
					}
					
					res  = ADC_Read_1();
 624:	0e 94 cb 01 	call	0x396	; 0x396 <ADC_Read_1>
 628:	90 93 45 02 	sts	0x0245, r25	; 0x800245 <res+0x1>
 62c:	80 93 44 02 	sts	0x0244, r24	; 0x800244 <res>
					
					if(res!=1023)
 630:	8f 3f       	cpi	r24, 0xFF	; 255
 632:	23 e0       	ldi	r18, 0x03	; 3
 634:	92 07       	cpc	r25, r18
 636:	21 f5       	brne	.+72     	; 0x680 <__LOCK_REGION_LENGTH__+0x280>
 638:	b5 c0       	rjmp	.+362    	; 0x7a4 <__LOCK_REGION_LENGTH__+0x3a4>

					if(R1)
						set_res = 100 ;
					else if(R2)
						set_res = 10 ;
					else if(R3)
 63a:	24 ff       	sbrs	r18, 4
 63c:	0d c0       	rjmp	.+26     	; 0x658 <__LOCK_REGION_LENGTH__+0x258>
						set_res = 1000 ;
 63e:	80 e0       	ldi	r24, 0x00	; 0
 640:	90 e0       	ldi	r25, 0x00	; 0
 642:	aa e7       	ldi	r26, 0x7A	; 122
 644:	b4 e4       	ldi	r27, 0x44	; 68
 646:	80 93 e0 00 	sts	0x00E0, r24	; 0x8000e0 <set_res>
 64a:	90 93 e1 00 	sts	0x00E1, r25	; 0x8000e1 <set_res+0x1>
 64e:	a0 93 e2 00 	sts	0x00E2, r26	; 0x8000e2 <set_res+0x2>
 652:	b0 93 e3 00 	sts	0x00E3, r27	; 0x8000e3 <set_res+0x3>
 656:	af c0       	rjmp	.+350    	; 0x7b6 <__LOCK_REGION_LENGTH__+0x3b6>
					else if(R4)
 658:	35 ff       	sbrs	r19, 5
 65a:	09 c0       	rjmp	.+18     	; 0x66e <__LOCK_REGION_LENGTH__+0x26e>
						set_res = 100 ;
 65c:	40 92 e0 00 	sts	0x00E0, r4	; 0x8000e0 <set_res>
 660:	50 92 e1 00 	sts	0x00E1, r5	; 0x8000e1 <set_res+0x1>
 664:	60 92 e2 00 	sts	0x00E2, r6	; 0x8000e2 <set_res+0x2>
 668:	70 92 e3 00 	sts	0x00E3, r7	; 0x8000e3 <set_res+0x3>
 66c:	a4 c0       	rjmp	.+328    	; 0x7b6 <__LOCK_REGION_LENGTH__+0x3b6>
					else
					{
						LCDWriteStringXY(0,1,"1               ");
 66e:	61 e0       	ldi	r22, 0x01	; 1
 670:	80 e0       	ldi	r24, 0x00	; 0
 672:	0e 94 9a 01 	call	0x334	; 0x334 <LCDGotoXY>
 676:	84 eb       	ldi	r24, 0xB4	; 180
 678:	90 e0       	ldi	r25, 0x00	; 0
 67a:	0e 94 b9 00 	call	0x172	; 0x172 <LCDWriteString>
						continue;
 67e:	af cf       	rjmp	.-162    	; 0x5de <__LOCK_REGION_LENGTH__+0x1de>
					
					if(res!=1023)
					{
						if(R1 || R2)
						{
							resistance = (res*set_res)/(1023.0-res);
 680:	bc 01       	movw	r22, r24
 682:	99 0f       	add	r25, r25
 684:	88 0b       	sbc	r24, r24
 686:	99 0b       	sbc	r25, r25
 688:	0e 94 f7 04 	call	0x9ee	; 0x9ee <__floatsisf>
 68c:	6b 01       	movw	r12, r22
 68e:	7c 01       	movw	r14, r24
 690:	20 91 e0 00 	lds	r18, 0x00E0	; 0x8000e0 <set_res>
 694:	30 91 e1 00 	lds	r19, 0x00E1	; 0x8000e1 <set_res+0x1>
 698:	40 91 e2 00 	lds	r20, 0x00E2	; 0x8000e2 <set_res+0x2>
 69c:	50 91 e3 00 	lds	r21, 0x00E3	; 0x8000e3 <set_res+0x3>
 6a0:	0e 94 83 05 	call	0xb06	; 0xb06 <__mulsf3>
 6a4:	69 83       	std	Y+1, r22	; 0x01
 6a6:	7a 83       	std	Y+2, r23	; 0x02
 6a8:	8b 83       	std	Y+3, r24	; 0x03
 6aa:	9c 83       	std	Y+4, r25	; 0x04
 6ac:	a7 01       	movw	r20, r14
 6ae:	96 01       	movw	r18, r12
 6b0:	60 e0       	ldi	r22, 0x00	; 0
 6b2:	70 ec       	ldi	r23, 0xC0	; 192
 6b4:	8f e7       	ldi	r24, 0x7F	; 127
 6b6:	94 e4       	ldi	r25, 0x44	; 68
 6b8:	0e 94 e7 03 	call	0x7ce	; 0x7ce <__subsf3>
 6bc:	9b 01       	movw	r18, r22
 6be:	ac 01       	movw	r20, r24
 6c0:	69 81       	ldd	r22, Y+1	; 0x01
 6c2:	7a 81       	ldd	r23, Y+2	; 0x02
 6c4:	8b 81       	ldd	r24, Y+3	; 0x03
 6c6:	9c 81       	ldd	r25, Y+4	; 0x04
 6c8:	0e 94 54 04 	call	0x8a8	; 0x8a8 <__divsf3>
 6cc:	60 93 e4 00 	sts	0x00E4, r22	; 0x8000e4 <resistance>
 6d0:	70 93 e5 00 	sts	0x00E5, r23	; 0x8000e5 <resistance+0x1>
 6d4:	80 93 e6 00 	sts	0x00E6, r24	; 0x8000e6 <resistance+0x2>
 6d8:	90 93 e7 00 	sts	0x00E7, r25	; 0x8000e7 <resistance+0x3>
							LCDWritefloatXY(0,1,resistance,4,2);
 6dc:	61 e0       	ldi	r22, 0x01	; 1
 6de:	80 e0       	ldi	r24, 0x00	; 0
 6e0:	0e 94 9a 01 	call	0x334	; 0x334 <LCDGotoXY>
 6e4:	60 91 e4 00 	lds	r22, 0x00E4	; 0x8000e4 <resistance>
 6e8:	70 91 e5 00 	lds	r23, 0x00E5	; 0x8000e5 <resistance+0x1>
 6ec:	80 91 e6 00 	lds	r24, 0x00E6	; 0x8000e6 <resistance+0x2>
 6f0:	90 91 e7 00 	lds	r25, 0x00E7	; 0x8000e7 <resistance+0x3>
 6f4:	22 e0       	ldi	r18, 0x02	; 2
 6f6:	30 e0       	ldi	r19, 0x00	; 0
 6f8:	44 e0       	ldi	r20, 0x04	; 4
 6fa:	50 e0       	ldi	r21, 0x00	; 0
 6fc:	0e 94 46 01 	call	0x28c	; 0x28c <LCDWritefloat>
							LCDWriteStringXY(0,7,"K Ohms");
 700:	67 e0       	ldi	r22, 0x07	; 7
 702:	80 e0       	ldi	r24, 0x00	; 0
 704:	0e 94 9a 01 	call	0x334	; 0x334 <LCDGotoXY>
 708:	85 ec       	ldi	r24, 0xC5	; 197
 70a:	90 e0       	ldi	r25, 0x00	; 0
 70c:	0e 94 b9 00 	call	0x172	; 0x172 <LCDWriteString>
 710:	66 cf       	rjmp	.-308    	; 0x5de <__LOCK_REGION_LENGTH__+0x1de>
						}
						else
						{
							resistance = (res*set_res)/(1023.0-res);
 712:	bc 01       	movw	r22, r24
 714:	99 0f       	add	r25, r25
 716:	88 0b       	sbc	r24, r24
 718:	99 0b       	sbc	r25, r25
 71a:	0e 94 f7 04 	call	0x9ee	; 0x9ee <__floatsisf>
 71e:	6b 01       	movw	r12, r22
 720:	7c 01       	movw	r14, r24
 722:	20 91 e0 00 	lds	r18, 0x00E0	; 0x8000e0 <set_res>
 726:	30 91 e1 00 	lds	r19, 0x00E1	; 0x8000e1 <set_res+0x1>
 72a:	40 91 e2 00 	lds	r20, 0x00E2	; 0x8000e2 <set_res+0x2>
 72e:	50 91 e3 00 	lds	r21, 0x00E3	; 0x8000e3 <set_res+0x3>
 732:	0e 94 83 05 	call	0xb06	; 0xb06 <__mulsf3>
 736:	69 83       	std	Y+1, r22	; 0x01
 738:	7a 83       	std	Y+2, r23	; 0x02
 73a:	8b 83       	std	Y+3, r24	; 0x03
 73c:	9c 83       	std	Y+4, r25	; 0x04
 73e:	a7 01       	movw	r20, r14
 740:	96 01       	movw	r18, r12
 742:	60 e0       	ldi	r22, 0x00	; 0
 744:	70 ec       	ldi	r23, 0xC0	; 192
 746:	8f e7       	ldi	r24, 0x7F	; 127
 748:	94 e4       	ldi	r25, 0x44	; 68
 74a:	0e 94 e7 03 	call	0x7ce	; 0x7ce <__subsf3>
 74e:	9b 01       	movw	r18, r22
 750:	ac 01       	movw	r20, r24
 752:	69 81       	ldd	r22, Y+1	; 0x01
 754:	7a 81       	ldd	r23, Y+2	; 0x02
 756:	8b 81       	ldd	r24, Y+3	; 0x03
 758:	9c 81       	ldd	r25, Y+4	; 0x04
 75a:	0e 94 54 04 	call	0x8a8	; 0x8a8 <__divsf3>
 75e:	60 93 e4 00 	sts	0x00E4, r22	; 0x8000e4 <resistance>
 762:	70 93 e5 00 	sts	0x00E5, r23	; 0x8000e5 <resistance+0x1>
 766:	80 93 e6 00 	sts	0x00E6, r24	; 0x8000e6 <resistance+0x2>
 76a:	90 93 e7 00 	sts	0x00E7, r25	; 0x8000e7 <resistance+0x3>
							LCDWritefloatXY(0,1,resistance,4,2);
 76e:	61 e0       	ldi	r22, 0x01	; 1
 770:	80 e0       	ldi	r24, 0x00	; 0
 772:	0e 94 9a 01 	call	0x334	; 0x334 <LCDGotoXY>
 776:	60 91 e4 00 	lds	r22, 0x00E4	; 0x8000e4 <resistance>
 77a:	70 91 e5 00 	lds	r23, 0x00E5	; 0x8000e5 <resistance+0x1>
 77e:	80 91 e6 00 	lds	r24, 0x00E6	; 0x8000e6 <resistance+0x2>
 782:	90 91 e7 00 	lds	r25, 0x00E7	; 0x8000e7 <resistance+0x3>
 786:	22 e0       	ldi	r18, 0x02	; 2
 788:	30 e0       	ldi	r19, 0x00	; 0
 78a:	44 e0       	ldi	r20, 0x04	; 4
 78c:	50 e0       	ldi	r21, 0x00	; 0
 78e:	0e 94 46 01 	call	0x28c	; 0x28c <LCDWritefloat>
							LCDWriteStringXY(0,7,"  Ohms");
 792:	67 e0       	ldi	r22, 0x07	; 7
 794:	80 e0       	ldi	r24, 0x00	; 0
 796:	0e 94 9a 01 	call	0x334	; 0x334 <LCDGotoXY>
 79a:	8c ec       	ldi	r24, 0xCC	; 204
 79c:	90 e0       	ldi	r25, 0x00	; 0
 79e:	0e 94 b9 00 	call	0x172	; 0x172 <LCDWriteString>
 7a2:	1d cf       	rjmp	.-454    	; 0x5de <__LOCK_REGION_LENGTH__+0x1de>
						}
					}
					else
					{
						LCDWriteStringXY(0,1,"1               ");
 7a4:	61 e0       	ldi	r22, 0x01	; 1
 7a6:	80 e0       	ldi	r24, 0x00	; 0
 7a8:	0e 94 9a 01 	call	0x334	; 0x334 <LCDGotoXY>
 7ac:	84 eb       	ldi	r24, 0xB4	; 180
 7ae:	90 e0       	ldi	r25, 0x00	; 0
 7b0:	0e 94 b9 00 	call	0x172	; 0x172 <LCDWriteString>
 7b4:	14 cf       	rjmp	.-472    	; 0x5de <__LOCK_REGION_LENGTH__+0x1de>
					{
						LCDWriteStringXY(0,1,"1               ");
						continue;
					}
					
					res  = ADC_Read_1();
 7b6:	0e 94 cb 01 	call	0x396	; 0x396 <ADC_Read_1>
 7ba:	90 93 45 02 	sts	0x0245, r25	; 0x800245 <res+0x1>
 7be:	80 93 44 02 	sts	0x0244, r24	; 0x800244 <res>
					
					if(res!=1023)
 7c2:	8f 3f       	cpi	r24, 0xFF	; 255
 7c4:	a3 e0       	ldi	r26, 0x03	; 3
 7c6:	9a 07       	cpc	r25, r26
 7c8:	09 f0       	breq	.+2      	; 0x7cc <__LOCK_REGION_LENGTH__+0x3cc>
 7ca:	a3 cf       	rjmp	.-186    	; 0x712 <__LOCK_REGION_LENGTH__+0x312>
 7cc:	eb cf       	rjmp	.-42     	; 0x7a4 <__LOCK_REGION_LENGTH__+0x3a4>

000007ce <__subsf3>:
 7ce:	50 58       	subi	r21, 0x80	; 128

000007d0 <__addsf3>:
 7d0:	bb 27       	eor	r27, r27
 7d2:	aa 27       	eor	r26, r26
 7d4:	0e 94 ff 03 	call	0x7fe	; 0x7fe <__addsf3x>
 7d8:	0c 94 49 05 	jmp	0xa92	; 0xa92 <__fp_round>
 7dc:	0e 94 3b 05 	call	0xa76	; 0xa76 <__fp_pscA>
 7e0:	38 f0       	brcs	.+14     	; 0x7f0 <__addsf3+0x20>
 7e2:	0e 94 42 05 	call	0xa84	; 0xa84 <__fp_pscB>
 7e6:	20 f0       	brcs	.+8      	; 0x7f0 <__addsf3+0x20>
 7e8:	39 f4       	brne	.+14     	; 0x7f8 <__addsf3+0x28>
 7ea:	9f 3f       	cpi	r25, 0xFF	; 255
 7ec:	19 f4       	brne	.+6      	; 0x7f4 <__addsf3+0x24>
 7ee:	26 f4       	brtc	.+8      	; 0x7f8 <__addsf3+0x28>
 7f0:	0c 94 38 05 	jmp	0xa70	; 0xa70 <__fp_nan>
 7f4:	0e f4       	brtc	.+2      	; 0x7f8 <__addsf3+0x28>
 7f6:	e0 95       	com	r30
 7f8:	e7 fb       	bst	r30, 7
 7fa:	0c 94 32 05 	jmp	0xa64	; 0xa64 <__fp_inf>

000007fe <__addsf3x>:
 7fe:	e9 2f       	mov	r30, r25
 800:	0e 94 5a 05 	call	0xab4	; 0xab4 <__fp_split3>
 804:	58 f3       	brcs	.-42     	; 0x7dc <__addsf3+0xc>
 806:	ba 17       	cp	r27, r26
 808:	62 07       	cpc	r22, r18
 80a:	73 07       	cpc	r23, r19
 80c:	84 07       	cpc	r24, r20
 80e:	95 07       	cpc	r25, r21
 810:	20 f0       	brcs	.+8      	; 0x81a <__addsf3x+0x1c>
 812:	79 f4       	brne	.+30     	; 0x832 <__addsf3x+0x34>
 814:	a6 f5       	brtc	.+104    	; 0x87e <__stack+0x1f>
 816:	0c 94 7c 05 	jmp	0xaf8	; 0xaf8 <__fp_zero>
 81a:	0e f4       	brtc	.+2      	; 0x81e <__addsf3x+0x20>
 81c:	e0 95       	com	r30
 81e:	0b 2e       	mov	r0, r27
 820:	ba 2f       	mov	r27, r26
 822:	a0 2d       	mov	r26, r0
 824:	0b 01       	movw	r0, r22
 826:	b9 01       	movw	r22, r18
 828:	90 01       	movw	r18, r0
 82a:	0c 01       	movw	r0, r24
 82c:	ca 01       	movw	r24, r20
 82e:	a0 01       	movw	r20, r0
 830:	11 24       	eor	r1, r1
 832:	ff 27       	eor	r31, r31
 834:	59 1b       	sub	r21, r25
 836:	99 f0       	breq	.+38     	; 0x85e <__addsf3x+0x60>
 838:	59 3f       	cpi	r21, 0xF9	; 249
 83a:	50 f4       	brcc	.+20     	; 0x850 <__addsf3x+0x52>
 83c:	50 3e       	cpi	r21, 0xE0	; 224
 83e:	68 f1       	brcs	.+90     	; 0x89a <__stack+0x3b>
 840:	1a 16       	cp	r1, r26
 842:	f0 40       	sbci	r31, 0x00	; 0
 844:	a2 2f       	mov	r26, r18
 846:	23 2f       	mov	r18, r19
 848:	34 2f       	mov	r19, r20
 84a:	44 27       	eor	r20, r20
 84c:	58 5f       	subi	r21, 0xF8	; 248
 84e:	f3 cf       	rjmp	.-26     	; 0x836 <__addsf3x+0x38>
 850:	46 95       	lsr	r20
 852:	37 95       	ror	r19
 854:	27 95       	ror	r18
 856:	a7 95       	ror	r26
 858:	f0 40       	sbci	r31, 0x00	; 0
 85a:	53 95       	inc	r21
 85c:	c9 f7       	brne	.-14     	; 0x850 <__addsf3x+0x52>
 85e:	7e f4       	brtc	.+30     	; 0x87e <__stack+0x1f>
 860:	1f 16       	cp	r1, r31
 862:	ba 0b       	sbc	r27, r26
 864:	62 0b       	sbc	r22, r18
 866:	73 0b       	sbc	r23, r19
 868:	84 0b       	sbc	r24, r20
 86a:	ba f0       	brmi	.+46     	; 0x89a <__stack+0x3b>
 86c:	91 50       	subi	r25, 0x01	; 1
 86e:	a1 f0       	breq	.+40     	; 0x898 <__stack+0x39>
 870:	ff 0f       	add	r31, r31
 872:	bb 1f       	adc	r27, r27
 874:	66 1f       	adc	r22, r22
 876:	77 1f       	adc	r23, r23
 878:	88 1f       	adc	r24, r24
 87a:	c2 f7       	brpl	.-16     	; 0x86c <__stack+0xd>
 87c:	0e c0       	rjmp	.+28     	; 0x89a <__stack+0x3b>
 87e:	ba 0f       	add	r27, r26
 880:	62 1f       	adc	r22, r18
 882:	73 1f       	adc	r23, r19
 884:	84 1f       	adc	r24, r20
 886:	48 f4       	brcc	.+18     	; 0x89a <__stack+0x3b>
 888:	87 95       	ror	r24
 88a:	77 95       	ror	r23
 88c:	67 95       	ror	r22
 88e:	b7 95       	ror	r27
 890:	f7 95       	ror	r31
 892:	9e 3f       	cpi	r25, 0xFE	; 254
 894:	08 f0       	brcs	.+2      	; 0x898 <__stack+0x39>
 896:	b0 cf       	rjmp	.-160    	; 0x7f8 <__addsf3+0x28>
 898:	93 95       	inc	r25
 89a:	88 0f       	add	r24, r24
 89c:	08 f0       	brcs	.+2      	; 0x8a0 <__stack+0x41>
 89e:	99 27       	eor	r25, r25
 8a0:	ee 0f       	add	r30, r30
 8a2:	97 95       	ror	r25
 8a4:	87 95       	ror	r24
 8a6:	08 95       	ret

000008a8 <__divsf3>:
 8a8:	0e 94 68 04 	call	0x8d0	; 0x8d0 <__divsf3x>
 8ac:	0c 94 49 05 	jmp	0xa92	; 0xa92 <__fp_round>
 8b0:	0e 94 42 05 	call	0xa84	; 0xa84 <__fp_pscB>
 8b4:	58 f0       	brcs	.+22     	; 0x8cc <__divsf3+0x24>
 8b6:	0e 94 3b 05 	call	0xa76	; 0xa76 <__fp_pscA>
 8ba:	40 f0       	brcs	.+16     	; 0x8cc <__divsf3+0x24>
 8bc:	29 f4       	brne	.+10     	; 0x8c8 <__divsf3+0x20>
 8be:	5f 3f       	cpi	r21, 0xFF	; 255
 8c0:	29 f0       	breq	.+10     	; 0x8cc <__divsf3+0x24>
 8c2:	0c 94 32 05 	jmp	0xa64	; 0xa64 <__fp_inf>
 8c6:	51 11       	cpse	r21, r1
 8c8:	0c 94 7d 05 	jmp	0xafa	; 0xafa <__fp_szero>
 8cc:	0c 94 38 05 	jmp	0xa70	; 0xa70 <__fp_nan>

000008d0 <__divsf3x>:
 8d0:	0e 94 5a 05 	call	0xab4	; 0xab4 <__fp_split3>
 8d4:	68 f3       	brcs	.-38     	; 0x8b0 <__divsf3+0x8>

000008d6 <__divsf3_pse>:
 8d6:	99 23       	and	r25, r25
 8d8:	b1 f3       	breq	.-20     	; 0x8c6 <__divsf3+0x1e>
 8da:	55 23       	and	r21, r21
 8dc:	91 f3       	breq	.-28     	; 0x8c2 <__divsf3+0x1a>
 8de:	95 1b       	sub	r25, r21
 8e0:	55 0b       	sbc	r21, r21
 8e2:	bb 27       	eor	r27, r27
 8e4:	aa 27       	eor	r26, r26
 8e6:	62 17       	cp	r22, r18
 8e8:	73 07       	cpc	r23, r19
 8ea:	84 07       	cpc	r24, r20
 8ec:	38 f0       	brcs	.+14     	; 0x8fc <__divsf3_pse+0x26>
 8ee:	9f 5f       	subi	r25, 0xFF	; 255
 8f0:	5f 4f       	sbci	r21, 0xFF	; 255
 8f2:	22 0f       	add	r18, r18
 8f4:	33 1f       	adc	r19, r19
 8f6:	44 1f       	adc	r20, r20
 8f8:	aa 1f       	adc	r26, r26
 8fa:	a9 f3       	breq	.-22     	; 0x8e6 <__divsf3_pse+0x10>
 8fc:	35 d0       	rcall	.+106    	; 0x968 <__divsf3_pse+0x92>
 8fe:	0e 2e       	mov	r0, r30
 900:	3a f0       	brmi	.+14     	; 0x910 <__divsf3_pse+0x3a>
 902:	e0 e8       	ldi	r30, 0x80	; 128
 904:	32 d0       	rcall	.+100    	; 0x96a <__divsf3_pse+0x94>
 906:	91 50       	subi	r25, 0x01	; 1
 908:	50 40       	sbci	r21, 0x00	; 0
 90a:	e6 95       	lsr	r30
 90c:	00 1c       	adc	r0, r0
 90e:	ca f7       	brpl	.-14     	; 0x902 <__divsf3_pse+0x2c>
 910:	2b d0       	rcall	.+86     	; 0x968 <__divsf3_pse+0x92>
 912:	fe 2f       	mov	r31, r30
 914:	29 d0       	rcall	.+82     	; 0x968 <__divsf3_pse+0x92>
 916:	66 0f       	add	r22, r22
 918:	77 1f       	adc	r23, r23
 91a:	88 1f       	adc	r24, r24
 91c:	bb 1f       	adc	r27, r27
 91e:	26 17       	cp	r18, r22
 920:	37 07       	cpc	r19, r23
 922:	48 07       	cpc	r20, r24
 924:	ab 07       	cpc	r26, r27
 926:	b0 e8       	ldi	r27, 0x80	; 128
 928:	09 f0       	breq	.+2      	; 0x92c <__divsf3_pse+0x56>
 92a:	bb 0b       	sbc	r27, r27
 92c:	80 2d       	mov	r24, r0
 92e:	bf 01       	movw	r22, r30
 930:	ff 27       	eor	r31, r31
 932:	93 58       	subi	r25, 0x83	; 131
 934:	5f 4f       	sbci	r21, 0xFF	; 255
 936:	3a f0       	brmi	.+14     	; 0x946 <__divsf3_pse+0x70>
 938:	9e 3f       	cpi	r25, 0xFE	; 254
 93a:	51 05       	cpc	r21, r1
 93c:	78 f0       	brcs	.+30     	; 0x95c <__divsf3_pse+0x86>
 93e:	0c 94 32 05 	jmp	0xa64	; 0xa64 <__fp_inf>
 942:	0c 94 7d 05 	jmp	0xafa	; 0xafa <__fp_szero>
 946:	5f 3f       	cpi	r21, 0xFF	; 255
 948:	e4 f3       	brlt	.-8      	; 0x942 <__divsf3_pse+0x6c>
 94a:	98 3e       	cpi	r25, 0xE8	; 232
 94c:	d4 f3       	brlt	.-12     	; 0x942 <__divsf3_pse+0x6c>
 94e:	86 95       	lsr	r24
 950:	77 95       	ror	r23
 952:	67 95       	ror	r22
 954:	b7 95       	ror	r27
 956:	f7 95       	ror	r31
 958:	9f 5f       	subi	r25, 0xFF	; 255
 95a:	c9 f7       	brne	.-14     	; 0x94e <__divsf3_pse+0x78>
 95c:	88 0f       	add	r24, r24
 95e:	91 1d       	adc	r25, r1
 960:	96 95       	lsr	r25
 962:	87 95       	ror	r24
 964:	97 f9       	bld	r25, 7
 966:	08 95       	ret
 968:	e1 e0       	ldi	r30, 0x01	; 1
 96a:	66 0f       	add	r22, r22
 96c:	77 1f       	adc	r23, r23
 96e:	88 1f       	adc	r24, r24
 970:	bb 1f       	adc	r27, r27
 972:	62 17       	cp	r22, r18
 974:	73 07       	cpc	r23, r19
 976:	84 07       	cpc	r24, r20
 978:	ba 07       	cpc	r27, r26
 97a:	20 f0       	brcs	.+8      	; 0x984 <__divsf3_pse+0xae>
 97c:	62 1b       	sub	r22, r18
 97e:	73 0b       	sbc	r23, r19
 980:	84 0b       	sbc	r24, r20
 982:	ba 0b       	sbc	r27, r26
 984:	ee 1f       	adc	r30, r30
 986:	88 f7       	brcc	.-30     	; 0x96a <__divsf3_pse+0x94>
 988:	e0 95       	com	r30
 98a:	08 95       	ret

0000098c <__fixunssfsi>:
 98c:	0e 94 62 05 	call	0xac4	; 0xac4 <__fp_splitA>
 990:	88 f0       	brcs	.+34     	; 0x9b4 <__fixunssfsi+0x28>
 992:	9f 57       	subi	r25, 0x7F	; 127
 994:	98 f0       	brcs	.+38     	; 0x9bc <__fixunssfsi+0x30>
 996:	b9 2f       	mov	r27, r25
 998:	99 27       	eor	r25, r25
 99a:	b7 51       	subi	r27, 0x17	; 23
 99c:	b0 f0       	brcs	.+44     	; 0x9ca <__fixunssfsi+0x3e>
 99e:	e1 f0       	breq	.+56     	; 0x9d8 <__fixunssfsi+0x4c>
 9a0:	66 0f       	add	r22, r22
 9a2:	77 1f       	adc	r23, r23
 9a4:	88 1f       	adc	r24, r24
 9a6:	99 1f       	adc	r25, r25
 9a8:	1a f0       	brmi	.+6      	; 0x9b0 <__fixunssfsi+0x24>
 9aa:	ba 95       	dec	r27
 9ac:	c9 f7       	brne	.-14     	; 0x9a0 <__fixunssfsi+0x14>
 9ae:	14 c0       	rjmp	.+40     	; 0x9d8 <__fixunssfsi+0x4c>
 9b0:	b1 30       	cpi	r27, 0x01	; 1
 9b2:	91 f0       	breq	.+36     	; 0x9d8 <__fixunssfsi+0x4c>
 9b4:	0e 94 7c 05 	call	0xaf8	; 0xaf8 <__fp_zero>
 9b8:	b1 e0       	ldi	r27, 0x01	; 1
 9ba:	08 95       	ret
 9bc:	0c 94 7c 05 	jmp	0xaf8	; 0xaf8 <__fp_zero>
 9c0:	67 2f       	mov	r22, r23
 9c2:	78 2f       	mov	r23, r24
 9c4:	88 27       	eor	r24, r24
 9c6:	b8 5f       	subi	r27, 0xF8	; 248
 9c8:	39 f0       	breq	.+14     	; 0x9d8 <__fixunssfsi+0x4c>
 9ca:	b9 3f       	cpi	r27, 0xF9	; 249
 9cc:	cc f3       	brlt	.-14     	; 0x9c0 <__fixunssfsi+0x34>
 9ce:	86 95       	lsr	r24
 9d0:	77 95       	ror	r23
 9d2:	67 95       	ror	r22
 9d4:	b3 95       	inc	r27
 9d6:	d9 f7       	brne	.-10     	; 0x9ce <__fixunssfsi+0x42>
 9d8:	3e f4       	brtc	.+14     	; 0x9e8 <__fixunssfsi+0x5c>
 9da:	90 95       	com	r25
 9dc:	80 95       	com	r24
 9de:	70 95       	com	r23
 9e0:	61 95       	neg	r22
 9e2:	7f 4f       	sbci	r23, 0xFF	; 255
 9e4:	8f 4f       	sbci	r24, 0xFF	; 255
 9e6:	9f 4f       	sbci	r25, 0xFF	; 255
 9e8:	08 95       	ret

000009ea <__floatunsisf>:
 9ea:	e8 94       	clt
 9ec:	09 c0       	rjmp	.+18     	; 0xa00 <__floatsisf+0x12>

000009ee <__floatsisf>:
 9ee:	97 fb       	bst	r25, 7
 9f0:	3e f4       	brtc	.+14     	; 0xa00 <__floatsisf+0x12>
 9f2:	90 95       	com	r25
 9f4:	80 95       	com	r24
 9f6:	70 95       	com	r23
 9f8:	61 95       	neg	r22
 9fa:	7f 4f       	sbci	r23, 0xFF	; 255
 9fc:	8f 4f       	sbci	r24, 0xFF	; 255
 9fe:	9f 4f       	sbci	r25, 0xFF	; 255
 a00:	99 23       	and	r25, r25
 a02:	a9 f0       	breq	.+42     	; 0xa2e <__floatsisf+0x40>
 a04:	f9 2f       	mov	r31, r25
 a06:	96 e9       	ldi	r25, 0x96	; 150
 a08:	bb 27       	eor	r27, r27
 a0a:	93 95       	inc	r25
 a0c:	f6 95       	lsr	r31
 a0e:	87 95       	ror	r24
 a10:	77 95       	ror	r23
 a12:	67 95       	ror	r22
 a14:	b7 95       	ror	r27
 a16:	f1 11       	cpse	r31, r1
 a18:	f8 cf       	rjmp	.-16     	; 0xa0a <__floatsisf+0x1c>
 a1a:	fa f4       	brpl	.+62     	; 0xa5a <__floatsisf+0x6c>
 a1c:	bb 0f       	add	r27, r27
 a1e:	11 f4       	brne	.+4      	; 0xa24 <__floatsisf+0x36>
 a20:	60 ff       	sbrs	r22, 0
 a22:	1b c0       	rjmp	.+54     	; 0xa5a <__floatsisf+0x6c>
 a24:	6f 5f       	subi	r22, 0xFF	; 255
 a26:	7f 4f       	sbci	r23, 0xFF	; 255
 a28:	8f 4f       	sbci	r24, 0xFF	; 255
 a2a:	9f 4f       	sbci	r25, 0xFF	; 255
 a2c:	16 c0       	rjmp	.+44     	; 0xa5a <__floatsisf+0x6c>
 a2e:	88 23       	and	r24, r24
 a30:	11 f0       	breq	.+4      	; 0xa36 <__floatsisf+0x48>
 a32:	96 e9       	ldi	r25, 0x96	; 150
 a34:	11 c0       	rjmp	.+34     	; 0xa58 <__floatsisf+0x6a>
 a36:	77 23       	and	r23, r23
 a38:	21 f0       	breq	.+8      	; 0xa42 <__floatsisf+0x54>
 a3a:	9e e8       	ldi	r25, 0x8E	; 142
 a3c:	87 2f       	mov	r24, r23
 a3e:	76 2f       	mov	r23, r22
 a40:	05 c0       	rjmp	.+10     	; 0xa4c <__floatsisf+0x5e>
 a42:	66 23       	and	r22, r22
 a44:	71 f0       	breq	.+28     	; 0xa62 <__floatsisf+0x74>
 a46:	96 e8       	ldi	r25, 0x86	; 134
 a48:	86 2f       	mov	r24, r22
 a4a:	70 e0       	ldi	r23, 0x00	; 0
 a4c:	60 e0       	ldi	r22, 0x00	; 0
 a4e:	2a f0       	brmi	.+10     	; 0xa5a <__floatsisf+0x6c>
 a50:	9a 95       	dec	r25
 a52:	66 0f       	add	r22, r22
 a54:	77 1f       	adc	r23, r23
 a56:	88 1f       	adc	r24, r24
 a58:	da f7       	brpl	.-10     	; 0xa50 <__floatsisf+0x62>
 a5a:	88 0f       	add	r24, r24
 a5c:	96 95       	lsr	r25
 a5e:	87 95       	ror	r24
 a60:	97 f9       	bld	r25, 7
 a62:	08 95       	ret

00000a64 <__fp_inf>:
 a64:	97 f9       	bld	r25, 7
 a66:	9f 67       	ori	r25, 0x7F	; 127
 a68:	80 e8       	ldi	r24, 0x80	; 128
 a6a:	70 e0       	ldi	r23, 0x00	; 0
 a6c:	60 e0       	ldi	r22, 0x00	; 0
 a6e:	08 95       	ret

00000a70 <__fp_nan>:
 a70:	9f ef       	ldi	r25, 0xFF	; 255
 a72:	80 ec       	ldi	r24, 0xC0	; 192
 a74:	08 95       	ret

00000a76 <__fp_pscA>:
 a76:	00 24       	eor	r0, r0
 a78:	0a 94       	dec	r0
 a7a:	16 16       	cp	r1, r22
 a7c:	17 06       	cpc	r1, r23
 a7e:	18 06       	cpc	r1, r24
 a80:	09 06       	cpc	r0, r25
 a82:	08 95       	ret

00000a84 <__fp_pscB>:
 a84:	00 24       	eor	r0, r0
 a86:	0a 94       	dec	r0
 a88:	12 16       	cp	r1, r18
 a8a:	13 06       	cpc	r1, r19
 a8c:	14 06       	cpc	r1, r20
 a8e:	05 06       	cpc	r0, r21
 a90:	08 95       	ret

00000a92 <__fp_round>:
 a92:	09 2e       	mov	r0, r25
 a94:	03 94       	inc	r0
 a96:	00 0c       	add	r0, r0
 a98:	11 f4       	brne	.+4      	; 0xa9e <__fp_round+0xc>
 a9a:	88 23       	and	r24, r24
 a9c:	52 f0       	brmi	.+20     	; 0xab2 <__fp_round+0x20>
 a9e:	bb 0f       	add	r27, r27
 aa0:	40 f4       	brcc	.+16     	; 0xab2 <__fp_round+0x20>
 aa2:	bf 2b       	or	r27, r31
 aa4:	11 f4       	brne	.+4      	; 0xaaa <__fp_round+0x18>
 aa6:	60 ff       	sbrs	r22, 0
 aa8:	04 c0       	rjmp	.+8      	; 0xab2 <__fp_round+0x20>
 aaa:	6f 5f       	subi	r22, 0xFF	; 255
 aac:	7f 4f       	sbci	r23, 0xFF	; 255
 aae:	8f 4f       	sbci	r24, 0xFF	; 255
 ab0:	9f 4f       	sbci	r25, 0xFF	; 255
 ab2:	08 95       	ret

00000ab4 <__fp_split3>:
 ab4:	57 fd       	sbrc	r21, 7
 ab6:	90 58       	subi	r25, 0x80	; 128
 ab8:	44 0f       	add	r20, r20
 aba:	55 1f       	adc	r21, r21
 abc:	59 f0       	breq	.+22     	; 0xad4 <__fp_splitA+0x10>
 abe:	5f 3f       	cpi	r21, 0xFF	; 255
 ac0:	71 f0       	breq	.+28     	; 0xade <__fp_splitA+0x1a>
 ac2:	47 95       	ror	r20

00000ac4 <__fp_splitA>:
 ac4:	88 0f       	add	r24, r24
 ac6:	97 fb       	bst	r25, 7
 ac8:	99 1f       	adc	r25, r25
 aca:	61 f0       	breq	.+24     	; 0xae4 <__fp_splitA+0x20>
 acc:	9f 3f       	cpi	r25, 0xFF	; 255
 ace:	79 f0       	breq	.+30     	; 0xaee <__fp_splitA+0x2a>
 ad0:	87 95       	ror	r24
 ad2:	08 95       	ret
 ad4:	12 16       	cp	r1, r18
 ad6:	13 06       	cpc	r1, r19
 ad8:	14 06       	cpc	r1, r20
 ada:	55 1f       	adc	r21, r21
 adc:	f2 cf       	rjmp	.-28     	; 0xac2 <__fp_split3+0xe>
 ade:	46 95       	lsr	r20
 ae0:	f1 df       	rcall	.-30     	; 0xac4 <__fp_splitA>
 ae2:	08 c0       	rjmp	.+16     	; 0xaf4 <__fp_splitA+0x30>
 ae4:	16 16       	cp	r1, r22
 ae6:	17 06       	cpc	r1, r23
 ae8:	18 06       	cpc	r1, r24
 aea:	99 1f       	adc	r25, r25
 aec:	f1 cf       	rjmp	.-30     	; 0xad0 <__fp_splitA+0xc>
 aee:	86 95       	lsr	r24
 af0:	71 05       	cpc	r23, r1
 af2:	61 05       	cpc	r22, r1
 af4:	08 94       	sec
 af6:	08 95       	ret

00000af8 <__fp_zero>:
 af8:	e8 94       	clt

00000afa <__fp_szero>:
 afa:	bb 27       	eor	r27, r27
 afc:	66 27       	eor	r22, r22
 afe:	77 27       	eor	r23, r23
 b00:	cb 01       	movw	r24, r22
 b02:	97 f9       	bld	r25, 7
 b04:	08 95       	ret

00000b06 <__mulsf3>:
 b06:	0e 94 96 05 	call	0xb2c	; 0xb2c <__mulsf3x>
 b0a:	0c 94 49 05 	jmp	0xa92	; 0xa92 <__fp_round>
 b0e:	0e 94 3b 05 	call	0xa76	; 0xa76 <__fp_pscA>
 b12:	38 f0       	brcs	.+14     	; 0xb22 <__mulsf3+0x1c>
 b14:	0e 94 42 05 	call	0xa84	; 0xa84 <__fp_pscB>
 b18:	20 f0       	brcs	.+8      	; 0xb22 <__mulsf3+0x1c>
 b1a:	95 23       	and	r25, r21
 b1c:	11 f0       	breq	.+4      	; 0xb22 <__mulsf3+0x1c>
 b1e:	0c 94 32 05 	jmp	0xa64	; 0xa64 <__fp_inf>
 b22:	0c 94 38 05 	jmp	0xa70	; 0xa70 <__fp_nan>
 b26:	11 24       	eor	r1, r1
 b28:	0c 94 7d 05 	jmp	0xafa	; 0xafa <__fp_szero>

00000b2c <__mulsf3x>:
 b2c:	0e 94 5a 05 	call	0xab4	; 0xab4 <__fp_split3>
 b30:	70 f3       	brcs	.-36     	; 0xb0e <__mulsf3+0x8>

00000b32 <__mulsf3_pse>:
 b32:	95 9f       	mul	r25, r21
 b34:	c1 f3       	breq	.-16     	; 0xb26 <__mulsf3+0x20>
 b36:	95 0f       	add	r25, r21
 b38:	50 e0       	ldi	r21, 0x00	; 0
 b3a:	55 1f       	adc	r21, r21
 b3c:	62 9f       	mul	r22, r18
 b3e:	f0 01       	movw	r30, r0
 b40:	72 9f       	mul	r23, r18
 b42:	bb 27       	eor	r27, r27
 b44:	f0 0d       	add	r31, r0
 b46:	b1 1d       	adc	r27, r1
 b48:	63 9f       	mul	r22, r19
 b4a:	aa 27       	eor	r26, r26
 b4c:	f0 0d       	add	r31, r0
 b4e:	b1 1d       	adc	r27, r1
 b50:	aa 1f       	adc	r26, r26
 b52:	64 9f       	mul	r22, r20
 b54:	66 27       	eor	r22, r22
 b56:	b0 0d       	add	r27, r0
 b58:	a1 1d       	adc	r26, r1
 b5a:	66 1f       	adc	r22, r22
 b5c:	82 9f       	mul	r24, r18
 b5e:	22 27       	eor	r18, r18
 b60:	b0 0d       	add	r27, r0
 b62:	a1 1d       	adc	r26, r1
 b64:	62 1f       	adc	r22, r18
 b66:	73 9f       	mul	r23, r19
 b68:	b0 0d       	add	r27, r0
 b6a:	a1 1d       	adc	r26, r1
 b6c:	62 1f       	adc	r22, r18
 b6e:	83 9f       	mul	r24, r19
 b70:	a0 0d       	add	r26, r0
 b72:	61 1d       	adc	r22, r1
 b74:	22 1f       	adc	r18, r18
 b76:	74 9f       	mul	r23, r20
 b78:	33 27       	eor	r19, r19
 b7a:	a0 0d       	add	r26, r0
 b7c:	61 1d       	adc	r22, r1
 b7e:	23 1f       	adc	r18, r19
 b80:	84 9f       	mul	r24, r20
 b82:	60 0d       	add	r22, r0
 b84:	21 1d       	adc	r18, r1
 b86:	82 2f       	mov	r24, r18
 b88:	76 2f       	mov	r23, r22
 b8a:	6a 2f       	mov	r22, r26
 b8c:	11 24       	eor	r1, r1
 b8e:	9f 57       	subi	r25, 0x7F	; 127
 b90:	50 40       	sbci	r21, 0x00	; 0
 b92:	9a f0       	brmi	.+38     	; 0xbba <__mulsf3_pse+0x88>
 b94:	f1 f0       	breq	.+60     	; 0xbd2 <__mulsf3_pse+0xa0>
 b96:	88 23       	and	r24, r24
 b98:	4a f0       	brmi	.+18     	; 0xbac <__mulsf3_pse+0x7a>
 b9a:	ee 0f       	add	r30, r30
 b9c:	ff 1f       	adc	r31, r31
 b9e:	bb 1f       	adc	r27, r27
 ba0:	66 1f       	adc	r22, r22
 ba2:	77 1f       	adc	r23, r23
 ba4:	88 1f       	adc	r24, r24
 ba6:	91 50       	subi	r25, 0x01	; 1
 ba8:	50 40       	sbci	r21, 0x00	; 0
 baa:	a9 f7       	brne	.-22     	; 0xb96 <__mulsf3_pse+0x64>
 bac:	9e 3f       	cpi	r25, 0xFE	; 254
 bae:	51 05       	cpc	r21, r1
 bb0:	80 f0       	brcs	.+32     	; 0xbd2 <__mulsf3_pse+0xa0>
 bb2:	0c 94 32 05 	jmp	0xa64	; 0xa64 <__fp_inf>
 bb6:	0c 94 7d 05 	jmp	0xafa	; 0xafa <__fp_szero>
 bba:	5f 3f       	cpi	r21, 0xFF	; 255
 bbc:	e4 f3       	brlt	.-8      	; 0xbb6 <__mulsf3_pse+0x84>
 bbe:	98 3e       	cpi	r25, 0xE8	; 232
 bc0:	d4 f3       	brlt	.-12     	; 0xbb6 <__mulsf3_pse+0x84>
 bc2:	86 95       	lsr	r24
 bc4:	77 95       	ror	r23
 bc6:	67 95       	ror	r22
 bc8:	b7 95       	ror	r27
 bca:	f7 95       	ror	r31
 bcc:	e7 95       	ror	r30
 bce:	9f 5f       	subi	r25, 0xFF	; 255
 bd0:	c1 f7       	brne	.-16     	; 0xbc2 <__mulsf3_pse+0x90>
 bd2:	fe 2b       	or	r31, r30
 bd4:	88 0f       	add	r24, r24
 bd6:	91 1d       	adc	r25, r1
 bd8:	96 95       	lsr	r25
 bda:	87 95       	ror	r24
 bdc:	97 f9       	bld	r25, 7
 bde:	08 95       	ret
 be0:	19 f4       	brne	.+6      	; 0xbe8 <__mulsf3_pse+0xb6>
 be2:	16 f4       	brtc	.+4      	; 0xbe8 <__mulsf3_pse+0xb6>
 be4:	0c 94 38 05 	jmp	0xa70	; 0xa70 <__fp_nan>
 be8:	0c 94 36 06 	jmp	0xc6c	; 0xc6c <__fp_mpack>

00000bec <sqrt>:
 bec:	0e 94 62 05 	call	0xac4	; 0xac4 <__fp_splitA>
 bf0:	b8 f3       	brcs	.-18     	; 0xbe0 <__mulsf3_pse+0xae>
 bf2:	99 23       	and	r25, r25
 bf4:	c9 f3       	breq	.-14     	; 0xbe8 <__mulsf3_pse+0xb6>
 bf6:	b6 f3       	brts	.-20     	; 0xbe4 <__mulsf3_pse+0xb2>
 bf8:	9f 57       	subi	r25, 0x7F	; 127
 bfa:	55 0b       	sbc	r21, r21
 bfc:	87 ff       	sbrs	r24, 7
 bfe:	0e 94 44 06 	call	0xc88	; 0xc88 <__fp_norm2>
 c02:	00 24       	eor	r0, r0
 c04:	a0 e6       	ldi	r26, 0x60	; 96
 c06:	40 ea       	ldi	r20, 0xA0	; 160
 c08:	90 01       	movw	r18, r0
 c0a:	80 58       	subi	r24, 0x80	; 128
 c0c:	56 95       	lsr	r21
 c0e:	97 95       	ror	r25
 c10:	28 f4       	brcc	.+10     	; 0xc1c <sqrt+0x30>
 c12:	80 5c       	subi	r24, 0xC0	; 192
 c14:	66 0f       	add	r22, r22
 c16:	77 1f       	adc	r23, r23
 c18:	88 1f       	adc	r24, r24
 c1a:	20 f0       	brcs	.+8      	; 0xc24 <sqrt+0x38>
 c1c:	26 17       	cp	r18, r22
 c1e:	37 07       	cpc	r19, r23
 c20:	48 07       	cpc	r20, r24
 c22:	30 f4       	brcc	.+12     	; 0xc30 <sqrt+0x44>
 c24:	62 1b       	sub	r22, r18
 c26:	73 0b       	sbc	r23, r19
 c28:	84 0b       	sbc	r24, r20
 c2a:	20 29       	or	r18, r0
 c2c:	31 29       	or	r19, r1
 c2e:	4a 2b       	or	r20, r26
 c30:	a6 95       	lsr	r26
 c32:	17 94       	ror	r1
 c34:	07 94       	ror	r0
 c36:	20 25       	eor	r18, r0
 c38:	31 25       	eor	r19, r1
 c3a:	4a 27       	eor	r20, r26
 c3c:	58 f7       	brcc	.-42     	; 0xc14 <sqrt+0x28>
 c3e:	66 0f       	add	r22, r22
 c40:	77 1f       	adc	r23, r23
 c42:	88 1f       	adc	r24, r24
 c44:	20 f0       	brcs	.+8      	; 0xc4e <sqrt+0x62>
 c46:	26 17       	cp	r18, r22
 c48:	37 07       	cpc	r19, r23
 c4a:	48 07       	cpc	r20, r24
 c4c:	30 f4       	brcc	.+12     	; 0xc5a <sqrt+0x6e>
 c4e:	62 0b       	sbc	r22, r18
 c50:	73 0b       	sbc	r23, r19
 c52:	84 0b       	sbc	r24, r20
 c54:	20 0d       	add	r18, r0
 c56:	31 1d       	adc	r19, r1
 c58:	41 1d       	adc	r20, r1
 c5a:	a0 95       	com	r26
 c5c:	81 f7       	brne	.-32     	; 0xc3e <sqrt+0x52>
 c5e:	b9 01       	movw	r22, r18
 c60:	84 2f       	mov	r24, r20
 c62:	91 58       	subi	r25, 0x81	; 129
 c64:	88 0f       	add	r24, r24
 c66:	96 95       	lsr	r25
 c68:	87 95       	ror	r24
 c6a:	08 95       	ret

00000c6c <__fp_mpack>:
 c6c:	9f 3f       	cpi	r25, 0xFF	; 255
 c6e:	31 f0       	breq	.+12     	; 0xc7c <__fp_mpack_finite+0xc>

00000c70 <__fp_mpack_finite>:
 c70:	91 50       	subi	r25, 0x01	; 1
 c72:	20 f4       	brcc	.+8      	; 0xc7c <__fp_mpack_finite+0xc>
 c74:	87 95       	ror	r24
 c76:	77 95       	ror	r23
 c78:	67 95       	ror	r22
 c7a:	b7 95       	ror	r27
 c7c:	88 0f       	add	r24, r24
 c7e:	91 1d       	adc	r25, r1
 c80:	96 95       	lsr	r25
 c82:	87 95       	ror	r24
 c84:	97 f9       	bld	r25, 7
 c86:	08 95       	ret

00000c88 <__fp_norm2>:
 c88:	91 50       	subi	r25, 0x01	; 1
 c8a:	50 40       	sbci	r21, 0x00	; 0
 c8c:	66 0f       	add	r22, r22
 c8e:	77 1f       	adc	r23, r23
 c90:	88 1f       	adc	r24, r24
 c92:	d2 f7       	brpl	.-12     	; 0xc88 <__fp_norm2>
 c94:	08 95       	ret

00000c96 <__divmodhi4>:
 c96:	97 fb       	bst	r25, 7
 c98:	07 2e       	mov	r0, r23
 c9a:	16 f4       	brtc	.+4      	; 0xca0 <__divmodhi4+0xa>
 c9c:	00 94       	com	r0
 c9e:	07 d0       	rcall	.+14     	; 0xcae <__divmodhi4_neg1>
 ca0:	77 fd       	sbrc	r23, 7
 ca2:	09 d0       	rcall	.+18     	; 0xcb6 <__divmodhi4_neg2>
 ca4:	0e 94 5f 06 	call	0xcbe	; 0xcbe <__udivmodhi4>
 ca8:	07 fc       	sbrc	r0, 7
 caa:	05 d0       	rcall	.+10     	; 0xcb6 <__divmodhi4_neg2>
 cac:	3e f4       	brtc	.+14     	; 0xcbc <__divmodhi4_exit>

00000cae <__divmodhi4_neg1>:
 cae:	90 95       	com	r25
 cb0:	81 95       	neg	r24
 cb2:	9f 4f       	sbci	r25, 0xFF	; 255
 cb4:	08 95       	ret

00000cb6 <__divmodhi4_neg2>:
 cb6:	70 95       	com	r23
 cb8:	61 95       	neg	r22
 cba:	7f 4f       	sbci	r23, 0xFF	; 255

00000cbc <__divmodhi4_exit>:
 cbc:	08 95       	ret

00000cbe <__udivmodhi4>:
 cbe:	aa 1b       	sub	r26, r26
 cc0:	bb 1b       	sub	r27, r27
 cc2:	51 e1       	ldi	r21, 0x11	; 17
 cc4:	07 c0       	rjmp	.+14     	; 0xcd4 <__udivmodhi4_ep>

00000cc6 <__udivmodhi4_loop>:
 cc6:	aa 1f       	adc	r26, r26
 cc8:	bb 1f       	adc	r27, r27
 cca:	a6 17       	cp	r26, r22
 ccc:	b7 07       	cpc	r27, r23
 cce:	10 f0       	brcs	.+4      	; 0xcd4 <__udivmodhi4_ep>
 cd0:	a6 1b       	sub	r26, r22
 cd2:	b7 0b       	sbc	r27, r23

00000cd4 <__udivmodhi4_ep>:
 cd4:	88 1f       	adc	r24, r24
 cd6:	99 1f       	adc	r25, r25
 cd8:	5a 95       	dec	r21
 cda:	a9 f7       	brne	.-22     	; 0xcc6 <__udivmodhi4_loop>
 cdc:	80 95       	com	r24
 cde:	90 95       	com	r25
 ce0:	bc 01       	movw	r22, r24
 ce2:	cd 01       	movw	r24, r26
 ce4:	08 95       	ret

00000ce6 <_exit>:
 ce6:	f8 94       	cli

00000ce8 <__stop_program>:
 ce8:	ff cf       	rjmp	.-2      	; 0xce8 <__stop_program>
